(dp1
S'regimentdata'
p2
(dp3
S'24'
p4
ccopy_reg
_reconstructor
p5
(canw.war.regimentdata
RegimentData
p6
c__builtin__
object
p7
NtRp8
(dp9
S'A'
F0
sS'costIA'
p10
F48
sS'costEC'
p11
F0
sS'costAL'
p12
F0
sS'I'
F0
sS'defaultAttributes'
p13
(S'id'
p14
S'name'
p15
S'abr'
p16
S'costCR'
p17
g12
g11
g10
S'techReq'
p18
S'description'
p19
S'power'
p20
S'L'
S'I'
S'M'
S'A'
tp21
sg19
S'Heavy Plasma Infantry'
p22
sS'M'
F50
sS'L'
F25
sg17
F1800
sg20
F1500
sg16
S'HPI'
p23
sg18
S'254'
p24
sg14
g4
sg15
S'Heavy Plasma Infantry'
p25
sbsS'25'
p26
g5
(g6
g7
NtRp27
(dp28
S'A'
F100
sg10
F0
sg11
F0
sg12
F180
sS'I'
F0
sg13
g21
sg19
S'Light Plasma Mechanized'
p29
sS'M'
F0
sS'L'
F0
sg17
F1800
sg20
F900
sg16
S'LPM'
p30
sg18
S'227'
p31
sg14
g26
sg15
S'Light Plasma Mechanized'
p32
sbsS'26'
p33
g5
(g6
g7
NtRp34
(dp35
S'A'
F100
sg10
F0
sg11
F0
sg12
F180
sS'I'
F0
sg13
g21
sg19
S'Medium Plasma Mechanized'
p36
sS'M'
F0
sS'L'
F0
sg17
F1800
sg20
F1200
sg16
S'MPM'
p37
sg18
S'242'
p38
sg14
g33
sg15
S'Medium Plasma Mechanized'
p39
sbsS'27'
p40
g5
(g6
g7
NtRp41
(dp42
S'A'
F100
sg10
F0
sg11
F0
sg12
F180
sS'I'
F0
sg13
g21
sg19
S'Heavy Plasma Mechanized'
p43
sS'M'
F0
sS'L'
F0
sg17
F1800
sg20
F1500
sg16
S'HPM'
p44
sg18
S'255'
p45
sg14
g40
sg15
S'Heavy Plasma Mechanized'
p46
sbsS'20'
p47
g5
(g6
g7
NtRp48
(dp49
S'A'
F0
sg10
F0
sg11
F96
sg12
F0
sS'I'
F50
sg13
g21
sg19
S'Heavy Fusion Artillery'
p50
sS'M'
F0
sS'L'
F50
sg17
F1800
sg20
F900
sg16
S'HFA'
p51
sg18
S'156'
p52
sg14
g47
sg15
S'Heavy Fusion Artillery'
p53
sbsS'21'
p54
g5
(g6
g7
NtRp55
(dp56
S'A'
F0
sg10
F0
sg11
F0
sg12
F0
sS'I'
F0
sg13
g21
sg19
S'Plasma Militia'
p57
sS'M'
F0
sS'L'
F0
sg17
F0
sg20
F1000
sg16
S'PML'
p58
sg18
S'201'
p59
sg14
g54
sg15
S'Plasma Militia'
p60
sbsS'22'
p61
g5
(g6
g7
NtRp62
(dp63
S'A'
F0
sg10
F48
sg11
F0
sg12
F0
sS'I'
F0
sg13
g21
sg19
S'Light Plasma Infantry'
p64
sS'M'
F50
sS'L'
F25
sg17
F1800
sg20
F900
sg16
S'LPI'
p65
sg18
S'226'
p66
sg14
g61
sg15
S'Light Plasma Infantry'
p67
sbsS'23'
p68
g5
(g6
g7
NtRp69
(dp70
S'A'
F0
sg10
F48
sg11
F0
sg12
F0
sS'I'
F0
sg13
g21
sg19
S'Medium Plasma Infantry'
p71
sS'M'
F50
sS'L'
F25
sg17
F1800
sg20
F1200
sg16
S'MPI'
p72
sg18
S'241'
p73
sg14
g68
sg15
S'Medium Plasma Infantry'
p74
sbsS'28'
p75
g5
(g6
g7
NtRp76
(dp77
S'A'
F0
sg10
F0
sg11
F96
sg12
F0
sS'I'
F50
sg13
g21
sg19
S'Light Plasma Artillery'
p78
sS'M'
F0
sS'L'
F50
sg17
F1800
sg20
F900
sg16
S'LPA'
p79
sg18
S'228'
p80
sg14
g75
sg15
S'Light Plasma Artillery'
p81
sbsS'29'
p82
g5
(g6
g7
NtRp83
(dp84
S'A'
F0
sg10
F0
sg11
F96
sg12
F0
sS'I'
F50
sg13
g21
sg19
S'Medium Plasma Artillery'
p85
sS'M'
F0
sS'L'
F50
sg17
F1800
sg20
F1200
sg16
S'MPA'
p86
sg18
S'243'
p87
sg14
g82
sg15
S'Medium Plasma Artillery'
p88
sbsS'1'
g5
(g6
g7
NtRp89
(dp90
S'A'
F0
sg10
F0
sg11
F0
sg12
F0
sS'I'
F0
sg13
g21
sg19
S'Nuclear Militia'
p91
sS'M'
F0
sS'L'
F0
sg17
F0
sg20
F150
sg16
S'NML'
p92
sg18
S'1'
sg14
S'1'
sg15
S'Nuclear Militia'
p93
sbsS'3'
g5
(g6
g7
NtRp94
(dp95
S'A'
F0
sg10
F48
sg11
F0
sg12
F0
sS'I'
F0
sg13
g21
sg19
S'Medium Nuclear Infantry'
p96
sS'M'
F50
sS'L'
F25
sg17
F1800
sg20
F200
sg16
S'MNI'
p97
sg18
S'41'
p98
sg14
S'3'
sg15
S'Medium Nuclear Infantry'
p99
sbsS'2'
g5
(g6
g7
NtRp100
(dp101
S'A'
F0
sg10
F48
sg11
F0
sg12
F0
sS'I'
F0
sg13
g21
sg19
S'Light Nuclear Infantry'
p102
sS'M'
F50
sS'L'
F25
sg17
F1800
sg20
F100
sg16
S'LNI'
p103
sg18
S'26'
p104
sg14
S'2'
sg15
S'Light Nuclear Infantry'
p105
sbsS'5'
g5
(g6
g7
NtRp106
(dp107
S'A'
F100
sg10
F0
sg11
F0
sg12
F180
sS'I'
F0
sg13
g21
sg19
S'Light Nuclear Mechanized'
p108
sS'M'
F0
sS'L'
F0
sg17
F1800
sg20
F100
sg16
S'LNM'
p109
sg18
S'27'
p110
sg14
S'5'
sg15
S'Light Nuclear Mechanized'
p111
sbsS'4'
g5
(g6
g7
NtRp112
(dp113
S'A'
F0
sg10
F48
sg11
F0
sg12
F0
sS'I'
F0
sg13
g21
sg19
S'Heavy Nuclear Infantry'
p114
sS'M'
F50
sS'L'
F25
sg17
F31800
sg20
F300
sg16
S'HNI'
p115
sg18
S'54'
p116
sg14
S'4'
sg15
S'Heavy Nuclear Infantry'
p117
sbsS'7'
g5
(g6
g7
NtRp118
(dp119
S'A'
F100
sg10
F0
sg11
F0
sg12
F180
sS'I'
F0
sg13
g21
sg19
S'Heavy Nuclear Mechanized'
p120
sS'M'
F0
sS'L'
F0
sg17
F1800
sg20
F300
sg16
S'HNM'
p121
sg18
S'55'
p122
sg14
S'7'
sg15
S'Heavy Nuclear Mechanized'
p123
sbsS'6'
g5
(g6
g7
NtRp124
(dp125
S'A'
F100
sg10
F0
sg11
F0
sg12
F180
sS'I'
F0
sg13
g21
sg19
S'Medium Nuclear Mechanized'
p126
sS'M'
F0
sS'L'
F0
sg17
F1800
sg20
F200
sg16
S'MNM'
p127
sg18
S'42'
p128
sg14
S'6'
sg15
S'Medium Nuclear Mechanized'
p129
sbsS'9'
g5
(g6
g7
NtRp130
(dp131
S'A'
F0
sg10
F0
sg11
F96
sg12
F0
sS'I'
F50
sg13
g21
sg19
S'Medium Nuclear Artillery'
p132
sS'M'
F0
sS'L'
F50
sg17
F1800
sg20
F200
sg16
S'MNA'
p133
sg18
S'43'
p134
sg14
S'9'
sg15
S'Medium Nuclear Artillery'
p135
sbsS'8'
g5
(g6
g7
NtRp136
(dp137
S'A'
F0
sg10
F0
sg11
F96
sg12
F0
sS'I'
F50
sg13
g21
sg19
S'Light Nuclear Artillery'
p138
sS'M'
F0
sS'L'
F50
sg17
F1800
sg20
F100
sg16
S'LNA'
p139
sg18
S'28'
p140
sg14
S'8'
sg15
S'Light Nuclear Artillery'
p141
sbsS'11'
p142
g5
(g6
g7
NtRp143
(dp144
S'A'
F0
sg10
F0
sg11
F0
sg12
F0
sS'I'
F0
sg13
g21
sg19
S'Fusion Militia'
p145
sS'M'
F0
sS'L'
F0
sg17
F0
sg20
F400
sg16
S'FML'
p146
sg18
S'101'
p147
sg14
g142
sg15
S'Fusion Militia'
p148
sbsS'10'
p149
g5
(g6
g7
NtRp150
(dp151
S'A'
F0
sg10
F0
sg11
F96
sg12
F0
sS'I'
F50
sg13
g21
sg19
S'Heavy Nuclear Artillery'
p152
sS'M'
F0
sS'L'
F50
sg17
F1800
sg20
F300
sg16
S'HNA'
p153
sg18
S'56'
p154
sg14
g149
sg15
S'Heavy Nuclear Artillery'
p155
sbsS'13'
p156
g5
(g6
g7
NtRp157
(dp158
S'A'
F0
sg10
F48
sg11
F0
sg12
F0
sS'I'
F0
sg13
g21
sg19
S'Medium Fusion Infantry'
p159
sS'M'
F50
sS'L'
F25
sg17
F1800
sg20
F600
sg16
S'MFI'
p160
sg18
S'141'
p161
sg14
g156
sg15
S'Medium Fusion Infantry'
p162
sbsS'12'
p163
g5
(g6
g7
NtRp164
(dp165
S'A'
F0
sg10
F48
sg11
F0
sg12
F0
sS'I'
F0
sg13
g21
sg19
S'Light Fusion Infantry'
p166
sS'M'
F50
sS'L'
F25
sg17
F1800
sg20
F300
sg16
S'LFI'
p167
sg18
S'126'
p168
sg14
g163
sg15
S'Light Fusion Infantry'
p169
sbsS'15'
p170
g5
(g6
g7
NtRp171
(dp172
S'A'
F100
sg10
F0
sg11
F0
sg12
F180
sS'I'
F0
sg13
g21
sg19
S'Light Fusion Mechanized'
p173
sS'M'
F0
sS'L'
F0
sg17
F1800
sg20
F300
sg16
S'LFM'
p174
sg18
S'127'
p175
sg14
g170
sg15
S'Light Fusion Mechanized'
p176
sbsS'14'
p177
g5
(g6
g7
NtRp178
(dp179
S'A'
F0
sg10
F48
sg11
F0
sg12
F0
sS'I'
F0
sg13
g21
sg19
S'Heavy Fusion Infantry'
p180
sS'M'
F50
sS'L'
F25
sg17
F1800
sg20
F900
sg16
S'HFI'
p181
sg18
S'154'
p182
sg14
g177
sg15
S'Heavy Fusion Infantry'
p183
sbsS'17'
p184
g5
(g6
g7
NtRp185
(dp186
S'A'
F100
sg10
F0
sg11
F0
sg12
F180
sS'I'
F0
sg13
g21
sg19
S'Heavy Fusion Mechanized'
p187
sS'M'
F0
sS'L'
F0
sg17
F1800
sg20
F900
sg16
S'HFM'
p188
sg18
S'155'
p189
sg14
g184
sg15
S'Heavy Fusion Mechanized'
p190
sbsS'16'
p191
g5
(g6
g7
NtRp192
(dp193
S'A'
F100
sg10
F0
sg11
F0
sg12
F180
sS'I'
F0
sg13
g21
sg19
S'Medium Fusion Mechanized'
p194
sS'M'
F0
sS'L'
F0
sg17
F1800
sg20
F600
sg16
S'MFM'
p195
sg18
S'142'
p196
sg14
g191
sg15
S'Medium Fusion Mechanized'
p197
sbsS'19'
p198
g5
(g6
g7
NtRp199
(dp200
S'A'
F0
sg10
F0
sg11
F96
sg12
F0
sS'I'
F50
sg13
g21
sg19
S'Medium Fusion Artillery'
p201
sS'M'
F0
sS'L'
F50
sg17
F1800
sg20
F600
sg16
S'MFA'
p202
sg18
S'143'
p203
sg14
g198
sg15
S'Medium Fusion Artillery'
p204
sbsS'18'
p205
g5
(g6
g7
NtRp206
(dp207
S'A'
F0
sg10
F0
sg11
F96
sg12
F0
sS'I'
F50
sg13
g21
sg19
S'Light Fusion Artillery'
p208
sS'M'
F0
sS'L'
F50
sg17
F1800
sg20
F300
sg16
S'LFA'
p209
sg18
S'128'
p210
sg14
g205
sg15
S'Light Fusion Artillery'
p211
sbsS'30'
p212
g5
(g6
g7
NtRp213
(dp214
S'A'
F0
sg10
F0
sg11
F96
sg12
F0
sS'I'
F50
sg13
g21
sg19
S'Heavy Plasma Artillery'
p215
sS'M'
F0
sS'L'
F50
sg17
F1800
sg20
F1500
sg16
S'HPA'
p216
sg18
S'256'
p217
sg14
g212
sg15
S'Heavy Plasma Artillery'
p218
sbssS'industrydata'
p219
(dp220
S'42'
p221
g5
(canw.aw.industrydata
IndustryData
p222
g7
NtRp223
(dp224
g10
F0
sg11
F0
sg12
F300
sg13
(g14
g15
g16
g17
g12
g11
g10
g18
g19
S'cities'
p225
S'output'
p226
tp227
sg19
S'Allows for 30 points of research per round'
p228
sg17
F3000
sg16
S'IRC'
p229
sg225
I1
sg226
F30
sg18
S'207'
p230
sg14
g221
sg15
S'Intelligent Research Center'
p231
sbsS'24'
p232
g5
(g222
g7
NtRp233
(dp234
g10
F0
sg11
F0
sg12
F400
sg13
g227
sg19
S'Provides 6 Plasma Militia Regiments in defence'
p235
sg17
F4000
sg16
S'IMF'
p236
sg225
I2
sg226
F6
sg18
S'201'
p237
sg14
g232
sg15
S'Intelligent Militia Fortress'
p238
sbsS'25'
p239
g5
(g222
g7
NtRp240
(dp241
g10
F0
sg11
F0
sg12
F100
sg13
g227
sg19
S'Trains 1 Starship Cadet per round'
p242
sg17
F1000
sg16
S'BFA'
p243
sg225
I1
sg226
F1
sg18
S'9'
sg14
g239
sg15
S'Basic Fleet Academy'
p244
sbsS'26'
p245
g5
(g222
g7
NtRp246
(dp247
g10
F0
sg11
F0
sg12
F200
sg13
g227
sg19
S'Trains 2 Starship Cadets per round'
p248
sg17
F2000
sg16
S'AFA'
p249
sg225
I1
sg226
F2
sg18
S'109'
p250
sg14
g245
sg15
S'Advanced Fleet Academy'
p251
sbsS'27'
p252
g5
(g222
g7
NtRp253
(dp254
g10
F0
sg11
F0
sg12
F300
sg13
g227
sg19
S'Trains 3 Starship Cadets per round'
p255
sg17
F3000
sg16
S'IFA'
p256
sg225
I1
sg226
F3
sg18
S'209'
p257
sg14
g252
sg15
S'Intelligent Fleet Academy'
p258
sbsS'20'
p259
g5
(g222
g7
NtRp260
(dp261
g10
F0
sg11
F0
sg12
F200
sg13
g227
sg19
S'Jams 40 Radar points'
p262
sg17
F2000
sg16
S'AJS'
p263
sg225
I1
sg226
F40
sg18
S'113'
p264
sg14
g259
sg15
S'Advanced Jamming Station'
p265
sbsS'21'
p266
g5
(g222
g7
NtRp267
(dp268
g10
F0
sg11
F0
sg12
F300
sg13
g227
sg19
S'Jams 60 Radar points'
p269
sg17
F3000
sg16
S'IJS'
p270
sg225
I1
sg226
F60
sg18
S'213'
p271
sg14
g266
sg15
S'Intelligent Jamming Station'
p272
sbsS'22'
p273
g5
(g222
g7
NtRp274
(dp275
g10
F0
sg11
F0
sg12
F200
sg13
g227
sg19
S'Provides 2 Nuclear Militia Regiments in defence'
p276
sg17
F2000
sg16
S'BMF'
p277
sg225
I2
sg226
F2
sg18
S'1'
sg14
g273
sg15
S'Basic Militia Fortress'
p278
sbsS'23'
p279
g5
(g222
g7
NtRp280
(dp281
g10
F0
sg11
F0
sg12
F300
sg13
g227
sg19
S'Provides 4 Fusion Militia Regiments in defence'
p282
sg17
F3000
sg16
S'AMF'
p283
sg225
I2
sg226
F4
sg18
S'101'
p284
sg14
g279
sg15
S'Advanced Militia Fortress'
p285
sbsS'28'
p286
g5
(g222
g7
NtRp287
(dp288
g10
F0
sg11
F0
sg12
F100
sg13
g227
sg19
S'Trains up to 2 Marine Regiments per round'
p289
sg17
F1000
sg16
S'BMA'
p290
sg225
I1
sg226
F2
sg18
S'10'
p291
sg14
g286
sg15
S'Basic Marine Academy'
p292
sbsS'29'
p293
g5
(g222
g7
NtRp294
(dp295
g10
F0
sg11
F0
sg12
F200
sg13
g227
sg19
S'Trains up to 4 Marine Regiments per round'
p296
sg17
F2000
sg16
S'AMA'
p297
sg225
I1
sg226
F4
sg18
S'110'
p298
sg14
g293
sg15
S'Advanced Marine Academy'
p299
sbsS'40'
p300
g5
(g222
g7
NtRp301
(dp302
g10
F0
sg11
F0
sg12
F100
sg13
g227
sg19
S'Allows for 15 points of research per round'
p303
sg17
F1000
sg16
S'BRC'
p304
sg225
I1
sg226
F15
sg18
S'7'
sg14
g300
sg15
S'Basic Research Center'
p305
sbsS'41'
p306
g5
(g222
g7
NtRp307
(dp308
g10
F0
sg11
F0
sg12
F200
sg13
g227
sg19
S'Allows for 20 points of research per round'
p309
sg17
F2000
sg16
S'ARC'
p310
sg225
I1
sg226
F20
sg18
S'107'
p311
sg14
g306
sg15
S'Advanced Research Center'
p312
sbsS'1'
g5
(g222
g7
NtRp313
(dp314
g10
F0
sg11
F0
sg12
F100
sg13
g227
sg19
S'Adds 10% to total Planet Alloy Production'
p315
sg17
F1000
sg16
S'BAF'
p316
sg225
I1
sg226
F0.10000000000000001
sg18
S'11'
p317
sg14
S'1'
sg15
S'Basic Alloy Factory'
p318
sbsS'3'
g5
(g222
g7
NtRp319
(dp320
g10
F0
sg11
F0
sg12
F300
sg13
g227
sg19
S'Adds 30% to total Planet Alloy Production'
p321
sg17
F3000
sg16
S'IAF'
p322
sg225
I1
sg226
F0.29999999999999999
sg18
S'211'
p323
sg14
S'3'
sg15
S'Intelligent Alloy Factory'
p324
sbsS'2'
g5
(g222
g7
NtRp325
(dp326
g10
F0
sg11
F0
sg12
F200
sg13
g227
sg19
S'Adds 20% to total Planet Alloy Production'
p327
sg17
F2000
sg16
S'AAF'
p328
sg225
I1
sg226
F0.20000000000000001
sg18
S'111'
p329
sg14
S'2'
sg15
S'Advanced Alloy Factory'
p330
sbsS'5'
g5
(g222
g7
NtRp331
(dp332
g10
F0
sg11
F0
sg12
F200
sg13
g227
sg19
S'Adds 20% to total Planet Energy Crystal Production'
p333
sg17
F2000
sg16
S'ACM'
p334
sg225
I1
sg226
F0.20000000000000001
sg18
S'118'
p335
sg14
S'5'
sg15
S'Advanced Crystal Mine'
p336
sbsS'4'
g5
(g222
g7
NtRp337
(dp338
g10
F0
sg11
F0
sg12
F100
sg13
g227
sg19
S'Adds 10% to total Planet Energy Crystal Production'
p339
sg17
F1000
sg16
S'BCM'
p340
sg225
I1
sg226
F0.10000000000000001
sg18
S'18'
p341
sg14
S'4'
sg15
S'Basic Crystal Mine'
p342
sbsS'7'
g5
(g222
g7
NtRp343
(dp344
g10
F0
sg11
F0
sg12
F100
sg13
g227
sg19
S'Adds 10% to total Planet Intelligent Array Production'
p345
sg17
F1000
sg16
S'BSS'
p346
sg225
I1
sg226
F0.10000000000000001
sg18
S'29'
p347
sg14
S'7'
sg15
S'Basic Synthetic System'
p348
sbsS'6'
g5
(g222
g7
NtRp349
(dp350
g10
F0
sg11
F0
sg12
F300
sg13
g227
sg19
S'Adds 30% to total Planet Energy Crystal Production'
p351
sg17
F3000
sg16
S'ICM'
p352
sg225
I1
sg226
F0.29999999999999999
sg18
S'218'
p353
sg14
S'6'
sg15
S'Intelligent Crystal Mine'
p354
sbsS'9'
g5
(g222
g7
NtRp355
(dp356
g10
F0
sg11
F0
sg12
F300
sg13
g227
sg19
S'Adds 30% to total Planet Intelligent Array Production'
p357
sg17
F3000
sg16
S'ISS'
p358
sg225
I1
sg226
F0.29999999999999999
sg18
S'229'
p359
sg14
S'9'
sg15
S'Intelligent Synthetic System'
p360
sbsS'8'
g5
(g222
g7
NtRp361
(dp362
g10
F0
sg11
F0
sg12
F200
sg13
g227
sg19
S'Adds 20% to total Planet Intelligent Array Production'
p363
sg17
F2000
sg16
S'ASS'
p364
sg225
I1
sg226
F0.20000000000000001
sg18
S'129'
p365
sg14
S'8'
sg15
S'Advanced Synthetic System'
p366
sbsS'39'
p367
g5
(g222
g7
NtRp368
(dp369
g10
F75
sg11
F150
sg12
F300
sg13
g227
sg19
S'Allows for 20 ships/trade routes to travel though gate per round'
p370
sg17
F3000
sg16
S'IWG'
p371
sg225
I1
sg226
F20
sg18
S'225'
p372
sg14
g367
sg15
S'Intelligent Warp Gate'
p373
sbsS'38'
p374
g5
(g222
g7
NtRp375
(dp376
g10
F50
sg11
F100
sg12
F200
sg13
g227
sg19
S'Allows for 10 ships/trade routes to travel though gate per round'
p377
sg17
F2000
sg16
S'AWG'
p378
sg225
I1
sg226
F10
sg18
S'125'
p379
sg14
g374
sg15
S'Advanced Warp Gate'
p380
sbsS'11'
p381
g5
(g222
g7
NtRp382
(dp383
g10
F0
sg11
F0
sg12
F200
sg13
g227
sg19
S'Allows 2 simulation point to be used per round per center'
p384
sg17
F2000
sg16
S'ASC'
p385
sg225
I1
sg226
F2
sg18
S'105'
p386
sg14
g381
sg15
S'Advanced Simulation Center'
p387
sbsS'10'
p388
g5
(g222
g7
NtRp389
(dp390
g10
F0
sg11
F0
sg12
F100
sg13
g227
sg19
S'Allows 1 simulation point to be used per round per center'
p391
sg17
F1000
sg16
S'BSC'
p392
sg225
I1
sg226
F1
sg18
S'5'
sg14
g388
sg15
S'Basic Simulation Center'
p393
sbsS'13'
p394
g5
(g222
g7
NtRp395
(dp396
g10
F0
sg11
F0
sg12
F100
sg13
g227
sg19
S'Allows 1 starship design per round per center'
p397
sg17
F1000
sg16
S'BDC'
p398
sg225
I1
sg226
F1
sg18
S'3'
sg14
g394
sg15
S'Basic Design Center'
p399
sbsS'12'
p400
g5
(g222
g7
NtRp401
(dp402
g10
F0
sg11
F0
sg12
F300
sg13
g227
sg19
S'Allows 3 simulation point to be used per round per center'
p403
sg17
F3000
sg16
S'ISC'
p404
sg225
I1
sg226
F3
sg18
S'205'
p405
sg14
g400
sg15
S'Intelligent Simulation Center'
p406
sbsS'15'
p407
g5
(g222
g7
NtRp408
(dp409
g10
F0
sg11
F0
sg12
F300
sg13
g227
sg19
S'Allows 4 starship design per round per center'
p410
sg17
F3000
sg16
S'IDC'
p411
sg225
I1
sg226
F4
sg18
S'203'
p412
sg14
g407
sg15
S'Intelligent Design Center'
p413
sbsS'14'
p414
g5
(g222
g7
NtRp415
(dp416
g10
F0
sg11
F0
sg12
F200
sg13
g227
sg19
S'Allows 2 starship design per round per center'
p417
sg17
F2000
sg16
S'ADC'
p418
sg225
I1
sg226
F2
sg18
S'103'
p419
sg14
g414
sg15
S'Advanced Design Center'
p420
sbsS'17'
p421
g5
(g222
g7
NtRp422
(dp423
g10
F0
sg11
F0
sg12
F200
sg13
g227
sg19
S'Scans 20 Radar points to adjacent Systems'
p424
sg17
F2000
sg16
S'ARS'
p425
sg225
I1
sg226
F20
sg18
S'104'
p426
sg14
g421
sg15
S'Advanced Radar Station'
p427
sbsS'16'
p428
g5
(g222
g7
NtRp429
(dp430
g10
F0
sg11
F0
sg12
F100
sg13
g227
sg19
S'Scans 10 Radar points to adjacent Systems'
p431
sg17
F1000
sg16
S'BRS'
p432
sg225
I1
sg226
F10
sg18
S'4'
sg14
g428
sg15
S'Basic Radar Station'
p433
sbsS'19'
p434
g5
(g222
g7
NtRp435
(dp436
g10
F0
sg11
F0
sg12
F100
sg13
g227
sg19
S'Jams 20 Radar points'
p437
sg17
F1000
sg16
S'BJS'
p438
sg225
I1
sg226
F20
sg18
S'13'
p439
sg14
g434
sg15
S'Basic Jamming Station'
p440
sbsS'18'
p441
g5
(g222
g7
NtRp442
(dp443
g10
F0
sg11
F0
sg12
F300
sg13
g227
sg19
S'Scans 30 Radar points to adjacent Systems'
p444
sg17
F3000
sg16
S'IRS'
p445
sg225
I1
sg226
F30
sg18
S'204'
p446
sg14
g441
sg15
S'Intelligent Radar Station'
p447
sbsS'31'
p448
g5
(g222
g7
NtRp449
(dp450
g10
F100
sg11
F200
sg12
F400
sg13
g227
sg19
S'Allows for 192 slots worth of Starships to be constructed'
p451
sg17
F4000
sg16
S'BSY'
p452
sg225
I2
sg226
F192
sg18
S'15'
p453
sg14
g448
sg15
S'Basic Shipyard'
p454
sbsS'30'
p455
g5
(g222
g7
NtRp456
(dp457
g10
F0
sg11
F0
sg12
F300
sg13
g227
sg19
S'Trains up to 6 Marine Regiments per round'
p458
sg17
F3000
sg16
S'IMA'
p459
sg225
I1
sg226
F6
sg18
S'210'
p460
sg14
g455
sg15
S'Intelligent Marine Academy'
p461
sbsS'37'
p462
g5
(g222
g7
NtRp463
(dp464
g10
F25
sg11
F50
sg12
F100
sg13
g227
sg19
S'Allows for 5 ships/trade routes to travel though gate per round'
p465
sg17
F1000
sg16
S'BWG'
p466
sg225
I1
sg226
F5
sg18
S'25'
p467
sg14
g462
sg15
S'Basic Warp Gate'
p468
sbsS'36'
p469
g5
(g222
g7
NtRp470
(dp471
g10
F300
sg11
F600
sg12
F1200
sg13
g227
sg19
S'Allows for 600 Marine Points per round'
p472
sg17
F12000
sg16
S'IMI'
p473
sg225
I2
sg226
F600
sg18
S'216'
p474
sg14
g469
sg15
S'Intelligent Marine Installation'
p475
sbsS'35'
p476
g5
(g222
g7
NtRp477
(dp478
g10
F200
sg11
F400
sg12
F800
sg13
g227
sg19
S'Allows for 400 Marine Points per round'
p479
sg17
F8000
sg16
S'AMI'
p480
sg225
I2
sg226
F400
sg18
S'116'
p481
sg14
g476
sg15
S'Advanced Marine Installation'
p482
sbsS'34'
p483
g5
(g222
g7
NtRp484
(dp485
g10
F100
sg11
F200
sg12
F400
sg13
g227
sg19
S'Allows for 200 Marine Points per round'
p486
sg17
F4000
sg16
S'BMI'
p487
sg225
I2
sg226
F200
sg18
S'16'
p488
sg14
g483
sg15
S'Basic Marine Installation'
p489
sbsS'33'
p490
g5
(g222
g7
NtRp491
(dp492
g10
F300
sg11
F600
sg12
F1200
sg13
g227
sg19
S'Allows for 768 slots worth of Starships to be constructed'
p493
sg17
F12000
sg16
S'ISY'
p494
sg225
I2
sg226
F768
sg18
S'215'
p495
sg14
g490
sg15
S'Intelligent Shipyard'
p496
sbsS'32'
p497
g5
(g222
g7
NtRp498
(dp499
g10
F200
sg11
F400
sg12
F800
sg13
g227
sg19
S'Allows for 384 slots worth of Starships to be constructed'
p500
sg17
F8000
sg16
S'ASY'
p501
sg225
I2
sg226
F384
sg18
S'115'
p502
sg14
g497
sg15
S'Advanced Shipyard'
p503
sbssS'componentdata'
p504
(dp505
S'56'
p506
g5
(canw.war.componentdata
ComponentData
p507
g7
NtRp508
(dp509
S'repair'
p510
I0
sg11
F2
sg12
F6
sS'battery'
p511
I0
sS'typeAP'
p512
S''
sS'radar'
p513
I0
sS'maxHP'
p514
I50
sg14
g506
sS'maxAmmo'
p515
I36
sg10
F2
sg13
(g14
g15
g16
g17
g12
g11
g10
g18
g19
g515
S'explosive'
p516
S'assault'
p517
S'engine'
p518
S'rotate'
p519
g20
g511
g510
S'target'
p520
g513
S'genSP'
p521
S'maxSP'
p522
g512
S'maxAP'
p523
g514
S'mass'
p524
S'jamming'
p525
tp526
sg16
S'MNMA'
p527
sg522
I0
sg18
S'47'
p528
sg525
I0
sg518
F0
sg516
I1
sg19
S'Mass=1000\nMax Ammo=36'
p529
sg20
I0
sg523
I0
sg521
I0
sg517
I0
sg15
S'Medium Nuclear Missile Ammo'
p530
sg519
F0
sg520
I0
sg17
F60
sg524
F1000
sbsS'54'
p531
g5
(g507
g7
NtRp532
(dp533
g510
I0
sg11
F0
sg12
F4
sg511
I0
sg512
S''
sg513
I0
sg514
I200
sg14
g531
sg515
I100
sg10
F0
sg13
g526
sg16
S'ARGA'
p534
sg522
I0
sg18
S'270'
p535
sg525
I0
sg518
F0
sg516
I0
sg19
S'Mass=800\nMax Ammo=100'
p536
sg20
I0
sg523
I0
sg521
I0
sg517
I0
sg15
S'AMS Rail Gun Ammo'
p537
sg519
F0
sg520
I0
sg17
F50
sg524
F800
sbsS'42'
p538
g5
(g507
g7
NtRp539
(dp540
g510
I0
sg11
F2
sg12
F8
sg511
I0
sg512
S''
sg513
I0
sg514
I200
sg14
g538
sg515
I24
sg10
F2
sg13
g526
sg16
S'HPTA'
p541
sg522
I0
sg18
S'263'
p542
sg525
I0
sg518
F0
sg516
I1
sg19
S'Mass=800\nMax Ammo=24'
p543
sg20
I0
sg523
I0
sg521
I0
sg517
I0
sg15
S'Heavy Plasma Torpedo Ammo'
p544
sg519
F0
sg520
I0
sg17
F80
sg524
F800
sbsS'48'
p545
g5
(g507
g7
NtRp546
(dp547
g510
I0
sg11
F2
sg12
F6
sg511
I0
sg512
S''
sg513
I0
sg514
I100
sg14
g545
sg515
I20
sg10
F0
sg13
g526
sg16
S'MACA'
p548
sg522
I0
sg18
S'146'
p549
sg525
I0
sg518
F0
sg516
I0
sg19
S'Mass=900\nMax Ammo=20'
p550
sg20
I0
sg523
I0
sg521
I0
sg517
I0
sg15
S'Medium Auto Cannon Ammo'
p551
sg519
F0
sg520
I0
sg17
F60
sg524
F900
sbsS'43'
p552
g5
(g507
g7
NtRp553
(dp554
g510
I0
sg11
F2
sg12
F4
sg511
I0
sg512
S''
sg513
I0
sg514
I50
sg14
g552
sg515
I32
sg10
F0
sg13
g526
sg16
S'LGGA'
p555
sg522
I0
sg18
S'32'
p556
sg525
I0
sg518
F0
sg516
I0
sg19
S'Mass=1000\nMax Ammo=32'
p557
sg20
I0
sg523
I0
sg521
I0
sg517
I0
sg15
S'Light Graviton Gun Ammo'
p558
sg519
F0
sg520
I0
sg17
F40
sg524
F1000
sbsS'60'
p559
g5
(g507
g7
NtRp560
(dp561
g510
I0
sg11
F2
sg12
F8
sg511
I0
sg512
S''
sg513
I0
sg514
I100
sg14
g559
sg515
I24
sg10
F2
sg13
g526
sg16
S'HFMA'
p562
sg522
I0
sg18
S'161'
p563
sg525
I0
sg518
F0
sg516
I1
sg19
S'Mass=900\nMax Ammo=24'
p564
sg20
I0
sg523
I0
sg521
I0
sg517
I0
sg15
S'Heavy Fusion Missile Ammo'
p565
sg519
F0
sg520
I0
sg17
F80
sg524
F900
sbsS'61'
p566
g5
(g507
g7
NtRp567
(dp568
g510
I0
sg11
F2
sg12
F4
sg511
I0
sg512
S''
sg513
I0
sg514
I200
sg14
g566
sg515
I48
sg10
F2
sg13
g526
sg16
S'LPMA'
p569
sg522
I0
sg18
S'233'
p570
sg525
I0
sg518
F0
sg516
I1
sg19
S'Mass=800\nMax Ammo=48'
p571
sg20
I0
sg523
I0
sg521
I0
sg517
I0
sg15
S'Light Plasma Missile Ammo'
p572
sg519
F0
sg520
I0
sg17
F40
sg524
F800
sbsS'62'
p573
g5
(g507
g7
NtRp574
(dp575
g510
I0
sg11
F2
sg12
F6
sg511
I0
sg512
S''
sg513
I0
sg514
I200
sg14
g573
sg515
I36
sg10
F2
sg13
g526
sg16
S'MPMA'
p576
sg522
I0
sg18
S'247'
p577
sg525
I0
sg518
F0
sg516
I1
sg19
S'Mass=800\nMax Ammo=36'
p578
sg20
I0
sg523
I0
sg521
I0
sg517
I0
sg15
S'Medium Plasma Missile Ammo'
p579
sg519
F0
sg520
I0
sg17
F60
sg524
F800
sbsS'63'
p580
g5
(g507
g7
NtRp581
(dp582
g510
I0
sg11
F2
sg12
F8
sg511
I0
sg512
S''
sg513
I0
sg514
I200
sg14
g580
sg515
I24
sg10
F2
sg13
g526
sg16
S'HPMA'
p583
sg522
I0
sg18
S'261'
p584
sg525
I0
sg518
F0
sg516
I1
sg19
S'Mass=800\nMax Ammo=24'
p585
sg20
I0
sg523
I0
sg521
I0
sg517
I0
sg15
S'Heavy Plasma Missile Ammo'
p586
sg519
F0
sg520
I0
sg17
F80
sg524
F800
sbsS'64'
p587
g5
(g507
g7
NtRp588
(dp589
g510
I0
sg11
F0
sg12
F0
sg511
I0
sg512
S''
sg513
I0
sg514
I0
sg14
g587
sg515
I0
sg10
F0
sg13
g526
sg16
S'WC'
p590
sg522
I0
sg18
S'998'
p591
sg525
I0
sg518
F0
sg516
I0
sg19
S'Mass=1000'
p592
sg20
I0
sg523
I0
sg521
I0
sg517
I0
sg15
S'Weapon Component'
p593
sg519
F0
sg520
I0
sg17
F0
sg524
F1000
sbsS'49'
p594
g5
(g507
g7
NtRp595
(dp596
g510
I0
sg11
F2
sg12
F8
sg511
I0
sg512
S''
sg513
I0
sg514
I100
sg14
g594
sg515
I16
sg10
F2
sg13
g526
sg16
S'HACA'
p597
sg522
I0
sg18
S'160'
p598
sg525
I0
sg518
F0
sg516
I0
sg19
S'Mass=900\nMax Ammo=16'
p599
sg20
I0
sg523
I0
sg521
I0
sg517
I0
sg15
S'Heavy Auto Cannon Ammo'
p600
sg519
F0
sg520
I0
sg17
F80
sg524
F900
sbsS'66'
p601
g5
(g507
g7
NtRp602
(dp603
g510
I0
sg11
F8
sg12
F20
sg511
I0
sg512
S''
sg513
I0
sg514
I100
sg14
g601
sg515
I0
sg10
F16
sg13
g526
sg16
S'PJD'
p604
sg522
I0
sg18
S'170'
p605
sg525
I8
sg518
F0
sg516
I0
sg19
S'Mass=900\nJamming=8'
p606
sg20
I0
sg523
I0
sg521
I0
sg517
I0
sg15
S'Progressive Jamming Dishes'
p607
sg519
F0
sg520
I0
sg17
F400
sg524
F900
sbsS'67'
p608
g5
(g507
g7
NtRp609
(dp610
g510
I0
sg11
F12
sg12
F30
sg511
I0
sg512
S''
sg513
I0
sg514
I200
sg14
g608
sg515
I0
sg10
F24
sg13
g526
sg16
S'UJD'
p611
sg522
I0
sg18
S'272'
p612
sg525
I12
sg518
F0
sg516
I0
sg19
S'Mass=800\nJamming=12'
p613
sg20
I0
sg523
I0
sg521
I0
sg517
I0
sg15
S'Ultra Jamming Dishes'
p614
sg519
F0
sg520
I0
sg17
F600
sg524
F800
sbsS'68'
p615
g5
(g507
g7
NtRp616
(dp617
g510
I0
sg11
F40
sg12
F60
sg511
I0
sg512
S''
sg513
I0
sg514
I200
sg14
g615
sg515
I0
sg10
F20
sg13
g526
sg16
S'CSE'
p618
sg522
I0
sg18
S'273'
p619
sg525
I0
sg518
F40
sg516
I0
sg19
S'Mass=800\nThrust=40.0'
p620
sg20
I0
sg523
I0
sg521
I0
sg517
I0
sg15
S'Capital Starship Engines'
p621
sg519
F0
sg520
I0
sg17
F600
sg524
F800
sbsS'69'
p622
g5
(g507
g7
NtRp623
(dp624
g510
I0
sg11
F40
sg12
F60
sg511
I0
sg512
S''
sg513
I0
sg514
I200
sg14
g622
sg515
I0
sg10
F20
sg13
g526
sg16
S'CRT'
p625
sg522
I0
sg18
S'273'
p626
sg525
I0
sg518
F0
sg516
I0
sg19
S'Mass=800\nRotation=150.0'
p627
sg20
I0
sg523
I0
sg521
I0
sg517
I0
sg15
S'Capital Rotation Thrusters'
p628
sg519
F150
sg520
I0
sg17
F300
sg524
F800
sbsS'52'
p629
g5
(g507
g7
NtRp630
(dp631
g510
I0
sg11
F2
sg12
F6
sg511
I0
sg512
S''
sg513
I0
sg514
I200
sg14
g629
sg515
I20
sg10
F0
sg13
g526
sg16
S'MRGA'
p632
sg522
I0
sg18
S'246'
p633
sg525
I0
sg518
F0
sg516
I0
sg19
S'Mass=800\nMax Ammo=20'
p634
sg20
I0
sg523
I0
sg521
I0
sg517
I0
sg15
S'Medium Rail Gun Ammo'
p635
sg519
F0
sg520
I0
sg17
F60
sg524
F800
sbsS'53'
p636
g5
(g507
g7
NtRp637
(dp638
g510
I0
sg11
F2
sg12
F8
sg511
I0
sg512
S''
sg513
I0
sg514
I200
sg14
g636
sg515
I16
sg10
F2
sg13
g526
sg16
S'HRGA'
p639
sg522
I0
sg18
S'260'
p640
sg525
I0
sg518
F0
sg516
I0
sg19
S'Mass=800\nMax Ammo=16'
p641
sg20
I0
sg523
I0
sg521
I0
sg517
I0
sg15
S'Heavy Rail Gun Ammo'
p642
sg519
F0
sg520
I0
sg17
F80
sg524
F800
sbsS'24'
p643
g5
(g507
g7
NtRp644
(dp645
g510
I0
sg11
F0
sg12
F30
sg511
I0
sg512
S''
sg513
I0
sg514
I200
sg14
g643
sg515
I0
sg10
F12
sg13
g526
sg16
S'UMP'
p646
sg522
I0
sg18
S'221'
p647
sg525
I0
sg518
F0
sg516
I0
sg19
S'Mass=800\nMarine Assault=9'
p648
sg20
I0
sg523
I0
sg521
I0
sg517
I9
sg15
S'Ultra Marine Pods'
p649
sg519
F0
sg520
I0
sg17
F300
sg524
F800
sbsS'25'
p650
g5
(g507
g7
NtRp651
(dp652
g510
I0
sg11
F6
sg12
F4
sg511
I0
sg512
S''
sg513
I0
sg514
I50
sg14
g650
sg515
I0
sg10
F0
sg13
g526
sg16
S'SSG'
p653
sg522
I100
sg18
S'66'
p654
sg525
I0
sg518
F0
sg516
I0
sg19
S'Mass=1000\nShield Generation=1\nShield Points=100'
p655
sg20
I0
sg523
I0
sg521
I1
sg517
I0
sg15
S'Simple Shield Generators'
p656
sg519
F0
sg520
I0
sg17
F100
sg524
F1000
sbsS'26'
p657
g5
(g507
g7
NtRp658
(dp659
g510
I0
sg11
F10
sg12
F8
sg511
I0
sg512
S''
sg513
I0
sg514
I100
sg14
g657
sg515
I0
sg10
F0
sg13
g526
sg16
S'PSG'
p660
sg522
I200
sg18
S'166'
p661
sg525
I0
sg518
F0
sg516
I0
sg19
S'Mass=900\nShield Generation=2\nShield Points=200'
p662
sg20
I0
sg523
I0
sg521
I2
sg517
I0
sg15
S'Progressive Shield Generators'
p663
sg519
F0
sg520
I0
sg17
F200
sg524
F900
sbsS'27'
p664
g5
(g507
g7
NtRp665
(dp666
g510
I0
sg11
F20
sg12
F12
sg511
I0
sg512
S''
sg513
I0
sg514
I200
sg14
g664
sg515
I0
sg10
F0
sg13
g526
sg16
S'USG'
p667
sg522
I300
sg18
S'266'
p668
sg525
I0
sg518
F0
sg516
I0
sg19
S'Mass=800\nShield Generation=3\nShield Points=300'
p669
sg20
I0
sg523
I0
sg521
I3
sg517
I0
sg15
S'Ultra Shield Generators'
p670
sg519
F0
sg520
I0
sg17
F300
sg524
F800
sbsS'20'
p671
g5
(g507
g7
NtRp672
(dp673
g510
I0
sg11
F8
sg12
F8
sg511
I0
sg512
S''
sg513
I2
sg514
I100
sg14
g671
sg515
I0
sg10
F4
sg13
g526
sg16
S'PRX'
p674
sg522
I0
sg18
S'140'
p675
sg525
I0
sg518
F0
sg516
I0
sg19
S'Mass=900\nRadar=2'
p676
sg20
I0
sg523
I0
sg521
I0
sg517
I0
sg15
S'Progressive Radar Scanners'
p677
sg519
F0
sg520
I0
sg17
F200
sg524
F900
sbsS'21'
p678
g5
(g507
g7
NtRp679
(dp680
g510
I0
sg11
F12
sg12
F12
sg511
I0
sg512
S''
sg513
I3
sg514
I200
sg14
g678
sg515
I0
sg10
F6
sg13
g526
sg16
S'URX'
p681
sg522
I0
sg18
S'240'
p682
sg525
I0
sg518
F0
sg516
I0
sg19
S'Mass=800\nRadar=3'
p683
sg20
I0
sg523
I0
sg521
I0
sg517
I0
sg15
S'Ultra Radar Scanners'
p684
sg519
F0
sg520
I0
sg17
F300
sg524
F800
sbsS'22'
p685
g5
(g507
g7
NtRp686
(dp687
g510
I0
sg11
F0
sg12
F10
sg511
I0
sg512
S''
sg513
I0
sg514
I50
sg14
g685
sg515
I0
sg10
F4
sg13
g526
sg16
S'SMP'
p688
sg522
I0
sg18
S'21'
p689
sg525
I0
sg518
F0
sg516
I0
sg19
S'Mass=1000\nMarine Assault=3'
p690
sg20
I0
sg523
I0
sg521
I0
sg517
I3
sg15
S'Simple Marine Pods'
p691
sg519
F0
sg520
I0
sg17
F100
sg524
F1000
sbsS'23'
p692
g5
(g507
g7
NtRp693
(dp694
g510
I0
sg11
F0
sg12
F20
sg511
I0
sg512
S''
sg513
I0
sg514
I100
sg14
g692
sg515
I0
sg10
F8
sg13
g526
sg16
S'PMP'
p695
sg522
I0
sg18
S'121'
p696
sg525
I0
sg518
F0
sg516
I0
sg19
S'Mass=900\nMarine Assault=6'
p697
sg20
I0
sg523
I0
sg521
I0
sg517
I6
sg15
S'Progressive Marine Pods'
p698
sg519
F0
sg520
I0
sg17
F200
sg524
F900
sbsS'46'
p699
g5
(g507
g7
NtRp700
(dp701
g510
I0
sg11
F0
sg12
F4
sg511
I0
sg512
S''
sg513
I0
sg514
I50
sg14
g699
sg515
I100
sg10
F0
sg13
g526
sg16
S'AGGA'
p702
sg522
I0
sg18
S'68'
p703
sg525
I0
sg518
F0
sg516
I0
sg19
S'Mass=1000\nMax Ammo=100'
p704
sg20
I0
sg523
I0
sg521
I0
sg517
I0
sg15
S'AMS Graviton Gun Ammo'
p705
sg519
F0
sg520
I0
sg17
F50
sg524
F1000
sbsS'47'
p706
g5
(g507
g7
NtRp707
(dp708
g510
I0
sg11
F2
sg12
F4
sg511
I0
sg512
S''
sg513
I0
sg514
I100
sg14
g706
sg515
I32
sg10
F0
sg13
g526
sg16
S'LACA'
p709
sg522
I0
sg18
S'132'
p710
sg525
I0
sg518
F0
sg516
I0
sg19
S'Mass=900\nMax Ammo=32'
p711
sg20
I0
sg523
I0
sg521
I0
sg517
I0
sg15
S'Light Auto Cannon Ammo'
p712
sg519
F0
sg520
I0
sg17
F40
sg524
F900
sbsS'44'
p713
g5
(g507
g7
NtRp714
(dp715
g510
I0
sg11
F2
sg12
F6
sg511
I0
sg512
S''
sg513
I0
sg514
I50
sg14
g713
sg515
I20
sg10
F0
sg13
g526
sg16
S'MGGA'
p716
sg522
I0
sg18
S'46'
p717
sg525
I0
sg518
F0
sg516
I0
sg19
S'Mass=1000\nMax Ammo=20'
p718
sg20
I0
sg523
I0
sg521
I0
sg517
I0
sg15
S'Medium Graviton Gun Ammo'
p719
sg519
F0
sg520
I0
sg17
F60
sg524
F1000
sbsS'45'
p720
g5
(g507
g7
NtRp721
(dp722
g510
I0
sg11
F2
sg12
F8
sg511
I0
sg512
S''
sg513
I0
sg514
I50
sg14
g720
sg515
I16
sg10
F2
sg13
g526
sg16
S'HGGA'
p723
sg522
I0
sg18
S'60'
p724
sg525
I0
sg518
F0
sg516
I0
sg19
S'Mass=1000\nMax Ammo=16'
p725
sg20
I0
sg523
I0
sg521
I0
sg517
I0
sg15
S'Heavy Graviton Gun Ammo'
p726
sg519
F0
sg520
I0
sg17
F80
sg524
F1000
sbsS'28'
p727
g5
(g507
g7
NtRp728
(dp729
g510
I0
sg11
F0
sg12
F10
sg511
I0
sg512
S'energy'
p730
sg513
I0
sg514
I50
sg14
g727
sg515
I0
sg10
F0
sg13
g526
sg16
S'SRA'
p731
sg522
I0
sg18
S'65'
p732
sg525
I0
sg518
F0
sg516
I0
sg19
S'Mass=1000\nArmor Points=300\nArmor Type=energy'
p733
sg20
I0
sg523
I300
sg521
I0
sg517
I0
sg15
S'Simple Reflective Armor'
p734
sg519
F0
sg520
I0
sg17
F100
sg524
F1000
sbsS'29'
p735
g5
(g507
g7
NtRp736
(dp737
g510
I0
sg11
F0
sg12
F20
sg511
I0
sg512
S'energy'
p738
sg513
I0
sg514
I100
sg14
g735
sg515
I0
sg10
F0
sg13
g526
sg16
S'PRA'
p739
sg522
I0
sg18
S'165'
p740
sg525
I0
sg518
F0
sg516
I0
sg19
S'Mass=900\nArmor Points=600\nArmor Type=energy'
p741
sg20
I0
sg523
I600
sg521
I0
sg517
I0
sg15
S'Progressive Reflective Armor'
p742
sg519
F0
sg520
I0
sg17
F200
sg524
F900
sbsS'40'
p743
g5
(g507
g7
NtRp744
(dp745
g510
I0
sg11
F2
sg12
F4
sg511
I0
sg512
S''
sg513
I0
sg514
I200
sg14
g743
sg515
I48
sg10
F2
sg13
g526
sg16
S'LPTA'
p746
sg522
I0
sg18
S'235'
p747
sg525
I0
sg518
F0
sg516
I1
sg19
S'Mass=800\nMax Ammo=48'
p748
sg20
I0
sg523
I0
sg521
I0
sg517
I0
sg15
S'Light Plasma Torpedo Ammo'
p749
sg519
F0
sg520
I0
sg17
F40
sg524
F800
sbsS'41'
p750
g5
(g507
g7
NtRp751
(dp752
g510
I0
sg11
F2
sg12
F6
sg511
I0
sg512
S''
sg513
I0
sg514
I200
sg14
g750
sg515
I36
sg10
F2
sg13
g526
sg16
S'MPTA'
p753
sg522
I0
sg18
S'249'
p754
sg525
I0
sg518
F0
sg516
I1
sg19
S'Mass=800\nMax Ammo=36'
p755
sg20
I0
sg523
I0
sg521
I0
sg517
I0
sg15
S'Medium Plasma Torpedo Ammo'
p756
sg519
F0
sg520
I0
sg17
F60
sg524
F800
sbsS'1'
g5
(g507
g7
NtRp757
(dp758
g510
I0
sg11
F4
sg12
F10
sg511
I0
sg512
S''
sg513
I0
sg514
I50
sg14
S'1'
sg515
I0
sg10
F0
sg13
g526
sg16
S'SSE'
p759
sg522
I0
sg18
S'37'
p760
sg525
I0
sg518
F10
sg516
I0
sg19
S'Mass=1000\nThrust=10.0'
p761
sg20
I0
sg523
I0
sg521
I0
sg517
I0
sg15
S'Simple StarShip Engines'
p762
sg519
F0
sg520
I0
sg17
F100
sg524
F1000
sbsS'3'
g5
(g507
g7
NtRp763
(dp764
g510
I0
sg11
F20
sg12
F30
sg511
I0
sg512
S''
sg513
I0
sg514
I200
sg14
S'3'
sg515
I0
sg10
F0
sg13
g526
sg16
S'USE'
p765
sg522
I0
sg18
S'237'
p766
sg525
I0
sg518
F20
sg516
I0
sg19
S'Mass=800\nThrust=20.0'
p767
sg20
I0
sg523
I0
sg521
I0
sg517
I0
sg15
S'Ultra StarShip Engines'
p768
sg519
F0
sg520
I0
sg17
F300
sg524
F800
sbsS'2'
g5
(g507
g7
NtRp769
(dp770
g510
I0
sg11
F10
sg12
F20
sg511
I0
sg512
S''
sg513
I0
sg514
I100
sg14
S'2'
sg515
I0
sg10
F0
sg13
g526
sg16
S'PSE'
p771
sg522
I0
sg18
S'137'
p772
sg525
I0
sg518
F16
sg516
I0
sg19
S'Mass=900\nThrust=16.0'
p773
sg20
I0
sg523
I0
sg521
I0
sg517
I0
sg15
S'Progressive StarShip Engines'
p774
sg519
F0
sg520
I0
sg17
F200
sg524
F900
sbsS'5'
g5
(g507
g7
NtRp775
(dp776
g510
I0
sg11
F10
sg12
F20
sg511
I0
sg512
S''
sg513
I0
sg514
I100
sg14
S'5'
sg515
I0
sg10
F0
sg13
g526
sg16
S'PRT'
p777
sg522
I0
sg18
S'138'
p778
sg525
I0
sg518
F0
sg516
I0
sg19
S'Mass=900\nRotation=45.0'
p779
sg20
I0
sg523
I0
sg521
I0
sg517
I0
sg15
S'Progressive Rotation Thrusters'
p780
sg519
F45
sg520
I0
sg17
F200
sg524
F900
sbsS'4'
g5
(g507
g7
NtRp781
(dp782
g510
I0
sg11
F4
sg12
F10
sg511
I0
sg512
S''
sg513
I0
sg514
I50
sg14
S'4'
sg515
I0
sg10
F0
sg13
g526
sg16
S'SRT'
p783
sg522
I0
sg18
S'38'
p784
sg525
I0
sg518
F0
sg516
I0
sg19
S'Mass=1000\nRotation=24.0'
p785
sg20
I0
sg523
I0
sg521
I0
sg517
I0
sg15
S'Simple Rotation Thrusters'
p786
sg519
F24
sg520
I0
sg17
F100
sg524
F1000
sbsS'7'
g5
(g507
g7
NtRp787
(dp788
g510
I0
sg11
F6
sg12
F10
sg511
I0
sg512
S''
sg513
I0
sg514
I50
sg14
S'7'
sg515
I0
sg10
F0
sg13
g526
sg16
S'SPP'
p789
sg522
I0
sg18
S'39'
p790
sg525
I0
sg518
F0
sg516
I50
sg19
S'Mass=1000\nPower Generation=50'
p791
sg20
I50
sg523
I0
sg521
I0
sg517
I0
sg15
S'Simple Power Plant'
p792
sg519
F0
sg520
I0
sg17
F100
sg524
F1000
sbsS'6'
g5
(g507
g7
NtRp793
(dp794
g510
I0
sg11
F20
sg12
F30
sg511
I0
sg512
S''
sg513
I0
sg514
I200
sg14
S'6'
sg515
I0
sg10
F0
sg13
g526
sg16
S'URT'
p795
sg522
I0
sg18
S'238'
p796
sg525
I0
sg518
F0
sg516
I0
sg19
S'Mass=800\nRotation=75.0'
p797
sg20
I0
sg523
I0
sg521
I0
sg517
I0
sg15
S'Ultra Rotation Thrusters'
p798
sg519
F75
sg520
I0
sg17
F300
sg524
F800
sbsS'9'
g5
(g507
g7
NtRp799
(dp800
g510
I0
sg11
F20
sg12
F30
sg511
I0
sg512
S''
sg513
I0
sg514
I200
sg14
S'9'
sg515
I0
sg10
F0
sg13
g526
sg16
S'UPP'
p801
sg522
I0
sg18
S'239'
p802
sg525
I0
sg518
F0
sg516
I200
sg19
S'Mass=800\nPower Generation=200'
p803
sg20
I200
sg523
I0
sg521
I0
sg517
I0
sg15
S'Ultra Power Plant'
p804
sg519
F0
sg520
I0
sg17
F300
sg524
F800
sbsS'8'
g5
(g507
g7
NtRp805
(dp806
g510
I0
sg11
F10
sg12
F20
sg511
I0
sg512
S''
sg513
I0
sg514
I100
sg14
S'8'
sg515
I0
sg10
F0
sg13
g526
sg16
S'PPP'
p807
sg522
I0
sg18
S'139'
p808
sg525
I0
sg518
F0
sg516
I100
sg19
S'Mass=900\nPower Generation=100'
p809
sg20
I100
sg523
I0
sg521
I0
sg517
I0
sg15
S'Progressive Power Plant'
p810
sg519
F0
sg520
I0
sg17
F200
sg524
F900
sbsS'51'
p811
g5
(g507
g7
NtRp812
(dp813
g510
I0
sg11
F2
sg12
F4
sg511
I0
sg512
S''
sg513
I0
sg514
I200
sg14
g811
sg515
I32
sg10
F0
sg13
g526
sg16
S'LRGA'
p814
sg522
I0
sg18
S'232'
p815
sg525
I0
sg518
F0
sg516
I0
sg19
S'Mass=800\nMax Ammo=32'
p816
sg20
I0
sg523
I0
sg521
I0
sg517
I0
sg15
S'Light Rail Gun Ammo'
p817
sg519
F0
sg520
I0
sg17
F40
sg524
F800
sbsS'39'
p818
g5
(g507
g7
NtRp819
(dp820
g510
I0
sg11
F2
sg12
F8
sg511
I0
sg512
S''
sg513
I0
sg514
I100
sg14
g818
sg515
I24
sg10
F2
sg13
g526
sg16
S'HFTA'
p821
sg522
I0
sg18
S'163'
p822
sg525
I0
sg518
F0
sg516
I1
sg19
S'Mass=900\nMax Ammo=24'
p823
sg20
I0
sg523
I0
sg521
I0
sg517
I0
sg15
S'Heavy Fusion Torpedo Ammo'
p824
sg519
F0
sg520
I0
sg17
F80
sg524
F900
sbsS'65'
p825
g5
(g507
g7
NtRp826
(dp827
g510
I0
sg11
F4
sg12
F10
sg511
I0
sg512
S''
sg513
I0
sg514
I50
sg14
g825
sg515
I0
sg10
F8
sg13
g526
sg16
S'SJD'
p828
sg522
I0
sg18
S'72'
p829
sg525
I4
sg518
F0
sg516
I0
sg19
S'Mass=1000\nJamming=4'
p830
sg20
I0
sg523
I0
sg521
I0
sg517
I0
sg15
S'Simple Jamming Dishes'
p831
sg519
F0
sg520
I0
sg17
F200
sg524
F1000
sbsS'38'
p832
g5
(g507
g7
NtRp833
(dp834
g510
I0
sg11
F2
sg12
F6
sg511
I0
sg512
S''
sg513
I0
sg514
I100
sg14
g832
sg515
I36
sg10
F2
sg13
g526
sg16
S'MFTA'
p835
sg522
I0
sg18
S'149'
p836
sg525
I0
sg518
F0
sg516
I1
sg19
S'Mass=900\nMax Ammo=36'
p837
sg20
I0
sg523
I0
sg521
I0
sg517
I0
sg15
S'Medium Fusion Torpedo Ammo'
p838
sg519
F0
sg520
I0
sg17
F60
sg524
F900
sbsS'59'
p839
g5
(g507
g7
NtRp840
(dp841
g510
I0
sg11
F2
sg12
F6
sg511
I0
sg512
S''
sg513
I0
sg514
I100
sg14
g839
sg515
I36
sg10
F2
sg13
g526
sg16
S'MFMA'
p842
sg522
I0
sg18
S'147'
p843
sg525
I0
sg518
F0
sg516
I1
sg19
S'Mass=900\nMax Ammo=36'
p844
sg20
I0
sg523
I0
sg521
I0
sg517
I0
sg15
S'Medium Fusion Missile Ammo'
p845
sg519
F0
sg520
I0
sg17
F60
sg524
F900
sbsS'58'
p846
g5
(g507
g7
NtRp847
(dp848
g510
I0
sg11
F2
sg12
F4
sg511
I0
sg512
S''
sg513
I0
sg514
I100
sg14
g846
sg515
I48
sg10
F2
sg13
g526
sg16
S'LFMA'
p849
sg522
I0
sg18
S'133'
p850
sg525
I0
sg518
F0
sg516
I1
sg19
S'Mass=900\nMax Ammo=48'
p851
sg20
I0
sg523
I0
sg521
I0
sg517
I0
sg15
S'Light Fusion Missile Ammo'
p852
sg519
F0
sg520
I0
sg17
F40
sg524
F900
sbsS'11'
p853
g5
(g507
g7
NtRp854
(dp855
g510
I0
sg11
F10
sg12
F20
sg511
I700
sg512
S''
sg513
I0
sg514
I100
sg14
g853
sg515
I0
sg10
F0
sg13
g526
sg16
S'PEB'
p856
sg522
I0
sg18
S'153'
p857
sg525
I0
sg518
F0
sg516
I0
sg19
S'Mass=900\nBattery Power=700'
p858
sg20
I0
sg523
I0
sg521
I0
sg517
I0
sg15
S'Progressive Energy Batteries'
p859
sg519
F0
sg520
I0
sg17
F200
sg524
F900
sbsS'10'
p860
g5
(g507
g7
NtRp861
(dp862
g510
I0
sg11
F6
sg12
F10
sg511
I350
sg512
S''
sg513
I0
sg514
I50
sg14
g860
sg515
I0
sg10
F0
sg13
g526
sg16
S'SEB'
p863
sg522
I0
sg18
S'53'
p864
sg525
I0
sg518
F0
sg516
I0
sg19
S'Mass=1000\nBattery Power=350'
p865
sg20
I0
sg523
I0
sg521
I0
sg517
I0
sg15
S'Simple Energy Batteries'
p866
sg519
F0
sg520
I0
sg17
F100
sg524
F1000
sbsS'13'
p867
g5
(g507
g7
NtRp868
(dp869
g510
I2
sg11
F6
sg12
F10
sg511
I0
sg512
S''
sg513
I0
sg514
I50
sg14
g867
sg515
I0
sg10
F4
sg13
g526
sg16
S'SES'
p870
sg522
I0
sg18
S'52'
p871
sg525
I0
sg518
F0
sg516
I0
sg19
S'Mass=1000\nShip Construction=2'
p872
sg20
I0
sg523
I0
sg521
I0
sg517
I0
sg15
S'Simple Engineering Stations'
p873
sg519
F0
sg520
I0
sg17
F100
sg524
F1000
sbsS'12'
p874
g5
(g507
g7
NtRp875
(dp876
g510
I0
sg11
F20
sg12
F30
sg511
I1400
sg512
S''
sg513
I0
sg514
I200
sg14
g874
sg515
I0
sg10
F0
sg13
g526
sg16
S'UEB'
p877
sg522
I0
sg18
S'253'
p878
sg525
I0
sg518
F0
sg516
I0
sg19
S'Mass=800\nBattery Power=1400'
p879
sg20
I0
sg523
I0
sg521
I0
sg517
I0
sg15
S'Ultra Energy Batteries'
p880
sg519
F0
sg520
I0
sg17
F300
sg524
F800
sbsS'15'
p881
g5
(g507
g7
NtRp882
(dp883
g510
I8
sg11
F18
sg12
F30
sg511
I0
sg512
S''
sg513
I0
sg514
I200
sg14
g881
sg515
I0
sg10
F12
sg13
g526
sg16
S'UES'
p884
sg522
I0
sg18
S'252'
p885
sg525
I0
sg518
F0
sg516
I0
sg19
S'Mass=800\nShip Construction=8'
p886
sg20
I0
sg523
I0
sg521
I0
sg517
I0
sg15
S'Ultra Engineering Stations'
p887
sg519
F0
sg520
I0
sg17
F300
sg524
F800
sbsS'14'
p888
g5
(g507
g7
NtRp889
(dp890
g510
I4
sg11
F12
sg12
F20
sg511
I0
sg512
S''
sg513
I0
sg514
I100
sg14
g888
sg515
I0
sg10
F8
sg13
g526
sg16
S'PES'
p891
sg522
I0
sg18
S'152'
p892
sg525
I0
sg518
F0
sg516
I0
sg19
S'Mass=900\nShip Construction=4'
p893
sg20
I0
sg523
I0
sg521
I0
sg517
I0
sg15
S'Progressive Engineering Stations'
p894
sg519
F0
sg520
I0
sg17
F200
sg524
F900
sbsS'17'
p895
g5
(g507
g7
NtRp896
(dp897
g510
I0
sg11
F8
sg12
F8
sg511
I0
sg512
S''
sg513
I0
sg514
I100
sg14
g895
sg515
I0
sg10
F40
sg13
g526
sg16
S'PTC'
p898
sg522
I0
sg18
S'167'
p899
sg525
I0
sg518
F0
sg516
I0
sg19
S'Mass=900\nTargetting=10'
p900
sg20
I0
sg523
I0
sg521
I0
sg517
I0
sg15
S'Progressive Targeting Computers'
p901
sg519
F0
sg520
I10
sg17
F600
sg524
F900
sbsS'16'
p902
g5
(g507
g7
NtRp903
(dp904
g510
I0
sg11
F4
sg12
F4
sg511
I0
sg512
S''
sg513
I0
sg514
I50
sg14
g902
sg515
I0
sg10
F20
sg13
g526
sg16
S'STC'
p905
sg522
I0
sg18
S'67'
p906
sg525
I0
sg518
F0
sg516
I0
sg19
S'Mass=1000\nTargetting=5'
p907
sg20
I0
sg523
I0
sg521
I0
sg517
I0
sg15
S'Simple Targeting Computers'
p908
sg519
F0
sg520
I5
sg17
F300
sg524
F1000
sbsS'19'
p909
g5
(g507
g7
NtRp910
(dp911
g510
I0
sg11
F4
sg12
F4
sg511
I0
sg512
S''
sg513
I1
sg514
I50
sg14
g909
sg515
I0
sg10
F2
sg13
g526
sg16
S'SRX'
p912
sg522
I0
sg18
S'40'
p913
sg525
I0
sg518
F0
sg516
I0
sg19
S'Mass=1000\nRadar=1'
p914
sg20
I0
sg523
I0
sg521
I0
sg517
I0
sg15
S'Simple Radar Scanners'
p915
sg519
F0
sg520
I0
sg17
F100
sg524
F1000
sbsS'18'
p916
g5
(g507
g7
NtRp917
(dp918
g510
I0
sg11
F12
sg12
F12
sg511
I0
sg512
S''
sg513
I0
sg514
I200
sg14
g916
sg515
I0
sg10
F60
sg13
g526
sg16
S'UTC'
p919
sg522
I0
sg18
S'267'
p920
sg525
I0
sg518
F0
sg516
I0
sg19
S'Mass=800\nTargetting=15'
p921
sg20
I0
sg523
I0
sg521
I0
sg517
I0
sg15
S'Ultra Targeting Computers'
p922
sg519
F0
sg520
I15
sg17
F900
sg524
F800
sbsS'31'
p923
g5
(g507
g7
NtRp924
(dp925
g510
I0
sg11
F0
sg12
F10
sg511
I0
sg512
S'impact'
p926
sg513
I0
sg514
I50
sg14
g923
sg515
I0
sg10
F0
sg13
g526
sg16
S'SIA'
p927
sg522
I0
sg18
S'64'
p928
sg525
I0
sg518
F0
sg516
I0
sg19
S'Mass=1000\nArmor Points=300\nArmor Type=impact'
p929
sg20
I0
sg523
I300
sg521
I0
sg517
I0
sg15
S'Simple Impact Armor'
p930
sg519
F0
sg520
I0
sg17
F100
sg524
F1000
sbsS'30'
p931
g5
(g507
g7
NtRp932
(dp933
g510
I0
sg11
F0
sg12
F30
sg511
I0
sg512
S'energy'
p934
sg513
I0
sg514
I200
sg14
g931
sg515
I0
sg10
F0
sg13
g526
sg16
S'URA'
p935
sg522
I0
sg18
S'265'
p936
sg525
I0
sg518
F0
sg516
I0
sg19
S'Mass=800\nArmor Points=900\nArmor Type=energy'
p937
sg20
I0
sg523
I900
sg521
I0
sg517
I0
sg15
S'Ultra Reflective Armor'
p938
sg519
F0
sg520
I0
sg17
F300
sg524
F800
sbsS'37'
p939
g5
(g507
g7
NtRp940
(dp941
g510
I0
sg11
F2
sg12
F4
sg511
I0
sg512
S''
sg513
I0
sg514
I100
sg14
g939
sg515
I48
sg10
F2
sg13
g526
sg16
S'LFTA'
p942
sg522
I0
sg18
S'135'
p943
sg525
I0
sg518
F0
sg516
I1
sg19
S'Mass=900\nMax Ammo=48'
p944
sg20
I0
sg523
I0
sg521
I0
sg517
I0
sg15
S'Light Fusion Torpedo Ammo'
p945
sg519
F0
sg520
I0
sg17
F40
sg524
F900
sbsS'36'
p946
g5
(g507
g7
NtRp947
(dp948
g510
I0
sg11
F2
sg12
F8
sg511
I0
sg512
S''
sg513
I0
sg514
I50
sg14
g946
sg515
I24
sg10
F2
sg13
g526
sg16
S'HNTA'
p949
sg522
I0
sg18
S'63'
p950
sg525
I0
sg518
F0
sg516
I1
sg19
S'Mass=1000\nMax Ammo=24'
p951
sg20
I0
sg523
I0
sg521
I0
sg517
I0
sg15
S'Heavy Nuclear Torpedo Ammo'
p952
sg519
F0
sg520
I0
sg17
F80
sg524
F1000
sbsS'35'
p953
g5
(g507
g7
NtRp954
(dp955
g510
I0
sg11
F2
sg12
F6
sg511
I0
sg512
S''
sg513
I0
sg514
I50
sg14
g953
sg515
I36
sg10
F2
sg13
g526
sg16
S'MNTA'
p956
sg522
I0
sg18
S'49'
p957
sg525
I0
sg518
F0
sg516
I1
sg19
S'Mass=1000\nMax Ammo=36'
p958
sg20
I0
sg523
I0
sg521
I0
sg517
I0
sg15
S'Medium Nuclear Torpedo Ammo'
p959
sg519
F0
sg520
I0
sg17
F60
sg524
F1000
sbsS'34'
p960
g5
(g507
g7
NtRp961
(dp962
g510
I0
sg11
F2
sg12
F4
sg511
I0
sg512
S''
sg513
I0
sg514
I50
sg14
g960
sg515
I48
sg10
F2
sg13
g526
sg16
S'LNTA'
p963
sg522
I0
sg18
S'35'
p964
sg525
I0
sg518
F0
sg516
I1
sg19
S'Mass=1000\nMax Ammo=48'
p965
sg20
I0
sg523
I0
sg521
I0
sg517
I0
sg15
S'Light Nuclear Torpedo Ammo'
p966
sg519
F0
sg520
I0
sg17
F40
sg524
F1000
sbsS'33'
p967
g5
(g507
g7
NtRp968
(dp969
g510
I0
sg11
F0
sg12
F30
sg511
I0
sg512
S'impact'
p970
sg513
I0
sg514
I200
sg14
g967
sg515
I0
sg10
F0
sg13
g526
sg16
S'UIA'
p971
sg522
I0
sg18
S'264'
p972
sg525
I0
sg518
F0
sg516
I0
sg19
S'Mass=800\nArmor Points=900\nArmor Type=impact'
p973
sg20
I0
sg523
I900
sg521
I0
sg517
I0
sg15
S'Ultra Impact Armor'
p974
sg519
F0
sg520
I0
sg17
F300
sg524
F800
sbsS'55'
p975
g5
(g507
g7
NtRp976
(dp977
g510
I0
sg11
F2
sg12
F4
sg511
I0
sg512
S''
sg513
I0
sg514
I50
sg14
g975
sg515
I48
sg10
F2
sg13
g526
sg16
S'LNMA'
p978
sg522
I0
sg18
S'33'
p979
sg525
I0
sg518
F0
sg516
I1
sg19
S'Mass=1000\nMax Ammo=48'
p980
sg20
I0
sg523
I0
sg521
I0
sg517
I0
sg15
S'Light Nuclear Missile Ammo'
p981
sg519
F0
sg520
I0
sg17
F40
sg524
F1000
sbsS'32'
p982
g5
(g507
g7
NtRp983
(dp984
g510
I0
sg11
F0
sg12
F20
sg511
I0
sg512
S'impact'
p985
sg513
I0
sg514
I100
sg14
g982
sg515
I0
sg10
F0
sg13
g526
sg16
S'PIA'
p986
sg522
I0
sg18
S'164'
p987
sg525
I0
sg518
F0
sg516
I0
sg19
S'Mass=900\nArmor Points=600\nArmor Type=impact'
p988
sg20
I0
sg523
I600
sg521
I0
sg517
I0
sg15
S'Progressive Impact Armor'
p989
sg519
F0
sg520
I0
sg17
F200
sg524
F900
sbsS'57'
p990
g5
(g507
g7
NtRp991
(dp992
g510
I0
sg11
F2
sg12
F8
sg511
I0
sg512
S''
sg513
I0
sg514
I50
sg14
g990
sg515
I24
sg10
F2
sg13
g526
sg16
S'HNMA'
p993
sg522
I0
sg18
S'61'
p994
sg525
I0
sg518
F0
sg516
I1
sg19
S'Mass=1000\nMax Ammo=24'
p995
sg20
I0
sg523
I0
sg521
I0
sg517
I0
sg15
S'Heavy Nuclear Missile Ammo'
p996
sg519
F0
sg520
I0
sg17
F80
sg524
F1000
sbsS'50'
p997
g5
(g507
g7
NtRp998
(dp999
g510
I0
sg11
F0
sg12
F4
sg511
I0
sg512
S''
sg513
I0
sg514
I100
sg14
g997
sg515
I100
sg10
F0
sg13
g526
sg16
S'AACA'
p1000
sg522
I0
sg18
S'168'
p1001
sg525
I0
sg518
F0
sg516
I0
sg19
S'Mass=900\nMax Ammo=100'
p1002
sg20
I0
sg523
I0
sg521
I0
sg517
I0
sg15
S'AMS Auto Cannon Ammo'
p1003
sg519
F0
sg520
I0
sg17
F50
sg524
F900
sbssS'weapondata'
p1004
(dp1005
S'42'
p1006
g5
(canw.war.weapondata
WeaponData
p1007
g7
NtRp1008
(dp1009
g11
F48
sg12
F0
sS'direct'
p1010
S''
sS'arc'
p1011
I10
sS'maxLock'
p1012
F3
sS'speed'
p1013
I10
sS'maxPower'
p1014
F1025
sg18
S'261'
p1015
sg10
F12
sS'ammoHP'
p1016
I200
sg13
(g14
g15
g16
g17
g12
g11
g10
g18
g19
S'range'
p1017
g1011
S'damage'
p1018
g1013
S'tracking'
p1019
g1012
S'ammo'
p1020
g1014
g1016
S'maxCompHP'
p1021
S'numComps'
p1022
S'AMS'
p1023
S'missile'
p1024
g1010
tp1025
sg1018
F800
sg14
g1006
sg16
S'HPM'
p1026
sg1023
I0
sg19
S'Range=80.0\nArc (Degrees)=10\nDamage=800.0\nPower Req=1025.0\nLock Time=3.0\nComponents Req=8\nMissile Type=impact\nSpeed=10\nTracking (sec)=8.0\nRequires Ammo=yes'
p1027
sg1024
S'impact'
p1028
sg1019
F8
sg15
S'Heavy Plasma Missile'
p1029
sg1021
I200
sg1022
I8
sg17
F480
sg1017
F80
sg1020
I1
sbsS'48'
p1030
g5
(g1007
g7
NtRp1031
(dp1032
g11
F0
sg12
F100
sg1010
S''
sg1011
I360
sg1012
F7
sg1013
I0
sg1014
F3500
sg18
S'159'
p1033
sg10
F56
sg1016
I0
sg13
g1025
sg1018
F0
sg14
g1030
sg16
S'HFL'
p1034
sg1023
I0
sg19
S'Range=224.0\nArc (Degrees)=360\nPower Req=3500.0\nLock Time=7.0\nComponents Req=12'
p1035
sg1024
S''
sg1019
F0
sg15
S'Heavy Fusion Launcher'
p1036
sg1021
I100
sg1022
I12
sg17
F280
sg1017
F224
sg1020
I0
sbsS'43'
p1037
g5
(g1007
g7
NtRp1038
(dp1039
g11
F0
sg12
F100
sg1010
S''
sg1011
I360
sg1012
F4
sg1013
I0
sg1014
F2000
sg18
S'31'
p1040
sg10
F32
sg1016
I0
sg13
g1025
sg1018
F0
sg14
g1037
sg16
S'LNL'
p1041
sg1023
I0
sg19
S'Range=128.0\nArc (Degrees)=360\nPower Req=2000.0\nLock Time=4.0\nComponents Req=8'
p1042
sg1024
S''
sg1019
F0
sg15
S'Light Nuclear Launcher'
p1043
sg1021
I50
sg1022
I8
sg17
F160
sg1017
F128
sg1020
I0
sbsS'49'
p1044
g5
(g1007
g7
NtRp1045
(dp1046
g11
F0
sg12
F100
sg1010
S''
sg1011
I360
sg1012
F6
sg1013
I0
sg1014
F3000
sg18
S'231'
p1047
sg10
F48
sg1016
I0
sg13
g1025
sg1018
F0
sg14
g1044
sg16
S'LPL'
p1048
sg1023
I0
sg19
S'Range=192.0\nArc (Degrees)=360\nPower Req=3000.0\nLock Time=6.0\nComponents Req=8'
p1049
sg1024
S''
sg1019
F0
sg15
S'Light Plasma Launcher'
p1050
sg1021
I200
sg1022
I8
sg17
F240
sg1017
F192
sg1020
I0
sbsS'24'
p1051
g5
(g1007
g7
NtRp1052
(dp1053
g11
F16
sg12
F0
sg1010
S'impact'
p1054
sg1011
I10
sg1012
F3
sg1013
I0
sg1014
F400
sg18
S'60'
p1055
sg10
F4
sg1016
I0
sg13
g1025
sg1018
F300
sg14
g1051
sg16
S'HGG'
p1056
sg1023
I0
sg19
S'Range=24.0\nArc (Degrees)=10\nDamage=300.0\nPower Req=400.0\nLock Time=3.0\nComponents Req=8\nDirect Type=impact\nRequires Ammo=yes'
p1057
sg1024
S''
sg1019
F0
sg15
S'Heavy Graviton Gun'
p1058
sg1021
I50
sg1022
I8
sg17
F160
sg1017
F24
sg1020
I1
sbsS'25'
p1059
g5
(g1007
g7
NtRp1060
(dp1061
g11
F8
sg12
F0
sg1010
S'impact'
p1062
sg1011
I360
sg1012
F0.29999999999999999
sg1013
I0
sg1014
F100
sg18
S'68'
p1063
sg10
F2
sg1016
I0
sg13
g1025
sg1018
F75
sg14
g1059
sg16
S'AGG'
p1064
sg1023
I1
sg19
S'Range=8.0\nArc (Degrees)=360\nDamage=75.0\nPower Req=100.0\nLock Time=0.3\nComponents Req=4\nDirect Type=impact\nAnti-Missle=yes\nRequires Ammo=yes'
p1065
sg1024
S''
sg1019
F0
sg15
S'AMS Graviton Gun'
p1066
sg1021
I50
sg1022
I4
sg17
F60
sg1017
F8
sg1020
I1
sbsS'26'
p1067
g5
(g1007
g7
NtRp1068
(dp1069
g11
F16
sg12
F0
sg1010
S'impact'
p1070
sg1011
I10
sg1012
F2
sg1013
I0
sg1014
F300
sg18
S'132'
p1071
sg10
F4
sg1016
I0
sg13
g1025
sg1018
F300
sg14
g1067
sg16
S'LAC'
p1072
sg1023
I0
sg19
S'Range=12.0\nArc (Degrees)=10\nDamage=300.0\nPower Req=300.0\nLock Time=2.0\nComponents Req=4\nDirect Type=impact\nRequires Ammo=yes'
p1073
sg1024
S''
sg1019
F0
sg15
S'Light Auto Cannon'
p1074
sg1021
I100
sg1022
I4
sg17
F160
sg1017
F12
sg1020
I1
sbsS'27'
p1075
g5
(g1007
g7
NtRp1076
(dp1077
g11
F24
sg12
F0
sg1010
S'impact'
p1078
sg1011
I10
sg1012
F2.5
sg1013
I0
sg1014
F450
sg18
S'146'
p1079
sg10
F6
sg1016
I0
sg13
g1025
sg1018
F450
sg14
g1075
sg16
S'MAC'
p1080
sg1023
I0
sg19
S'Range=24.0\nArc (Degrees)=10\nDamage=450.0\nPower Req=450.0\nLock Time=2.5\nComponents Req=6\nDirect Type=impact\nRequires Ammo=yes'
p1081
sg1024
S''
sg1019
F0
sg15
S'Medium Auto Cannon'
p1082
sg1021
I100
sg1022
I6
sg17
F240
sg1017
F24
sg1020
I1
sbsS'20'
p1083
g5
(g1007
g7
NtRp1084
(dp1085
g11
F36
sg12
F0
sg1010
S''
sg1011
I10
sg1012
F2.5
sg1013
I10
sg1014
F370
sg18
S'249'
p1086
sg10
F6
sg1016
I200
sg13
g1025
sg1018
F600
sg14
g1083
sg16
S'MPT'
p1087
sg1023
I0
sg19
S'Range=64.0\nArc (Degrees)=10\nDamage=600.0\nPower Req=370.0\nLock Time=2.5\nComponents Req=6\nMissile Type=energy\nSpeed=10\nTracking (sec)=8.0\nRequires Ammo=yes'
p1088
sg1024
S'energy'
p1089
sg1019
F8
sg15
S'Medium Plasma Torpedo'
p1090
sg1021
I200
sg1022
I6
sg17
F360
sg1017
F64
sg1020
I1
sbsS'21'
p1091
g5
(g1007
g7
NtRp1092
(dp1093
g11
F48
sg12
F0
sg1010
S''
sg1011
I10
sg1012
F3
sg1013
I10
sg1014
F510
sg18
S'263'
p1094
sg10
F12
sg1016
I200
sg13
g1025
sg1018
F800
sg14
g1091
sg16
S'HPT'
p1095
sg1023
I0
sg19
S'Range=80.0\nArc (Degrees)=10\nDamage=800.0\nPower Req=510.0\nLock Time=3.0\nComponents Req=8\nMissile Type=energy\nSpeed=10\nTracking (sec)=8.0\nRequires Ammo=yes'
p1096
sg1024
S'energy'
p1097
sg1019
F8
sg15
S'Heavy Plasma Torpedo'
p1098
sg1021
I200
sg1022
I8
sg17
F480
sg1017
F80
sg1020
I1
sbsS'22'
p1099
g5
(g1007
g7
NtRp1100
(dp1101
g11
F8
sg12
F0
sg1010
S'impact'
p1102
sg1011
I10
sg1012
F2
sg1013
I0
sg1014
F200
sg18
S'32'
p1103
sg10
F2
sg1016
I0
sg13
g1025
sg1018
F150
sg14
g1099
sg16
S'LGG'
p1104
sg1023
I0
sg19
S'Range=8.0\nArc (Degrees)=10\nDamage=150.0\nPower Req=200.0\nLock Time=2.0\nComponents Req=4\nDirect Type=impact\nRequires Ammo=yes'
p1105
sg1024
S''
sg1019
F0
sg15
S'Light Graviton Gun'
p1106
sg1021
I50
sg1022
I4
sg17
F80
sg1017
F8
sg1020
I1
sbsS'23'
p1107
g5
(g1007
g7
NtRp1108
(dp1109
g11
F12
sg12
F0
sg1010
S'impact'
p1110
sg1011
I10
sg1012
F2.5
sg1013
I0
sg1014
F300
sg18
S'46'
p1111
sg10
F2
sg1016
I0
sg13
g1025
sg1018
F225
sg14
g1107
sg16
S'MGG'
p1112
sg1023
I0
sg19
S'Range=16.0\nArc (Degrees)=10\nDamage=225.0\nPower Req=300.0\nLock Time=2.5\nComponents Req=6\nDirect Type=impact\nRequires Ammo=yes'
p1113
sg1024
S''
sg1019
F0
sg15
S'Medium Graviton Gun'
p1114
sg1021
I50
sg1022
I6
sg17
F120
sg1017
F16
sg1020
I1
sbsS'46'
p1115
g5
(g1007
g7
NtRp1116
(dp1117
g11
F0
sg12
F100
sg1010
S''
sg1011
I360
sg1012
F5
sg1013
I0
sg1014
F2500
sg18
S'131'
p1118
sg10
F40
sg1016
I0
sg13
g1025
sg1018
F0
sg14
g1115
sg16
S'LFL'
p1119
sg1023
I0
sg19
S'Range=160.0\nArc (Degrees)=360\nPower Req=2500.0\nLock Time=5.0\nComponents Req=8'
p1120
sg1024
S''
sg1019
F0
sg15
S'Light Fusion Launcher'
p1121
sg1021
I100
sg1022
I8
sg17
F200
sg1017
F160
sg1020
I0
sbsS'47'
p1122
g5
(g1007
g7
NtRp1123
(dp1124
g11
F0
sg12
F100
sg1010
S''
sg1011
I360
sg1012
F6
sg1013
I0
sg1014
F3000
sg18
S'145'
p1125
sg10
F48
sg1016
I0
sg13
g1025
sg1018
F0
sg14
g1122
sg16
S'MFL'
p1126
sg1023
I0
sg19
S'Range=192.0\nArc (Degrees)=360\nPower Req=3000.0\nLock Time=6.0\nComponents Req=10'
p1127
sg1024
S''
sg1019
F0
sg15
S'Medium Fusion Launcher'
p1128
sg1021
I100
sg1022
I10
sg17
F240
sg1017
F192
sg1020
I0
sbsS'44'
p1129
g5
(g1007
g7
NtRp1130
(dp1131
g11
F0
sg12
F100
sg1010
S''
sg1011
I360
sg1012
F5
sg1013
I0
sg1014
F2500
sg18
S'45'
p1132
sg10
F40
sg1016
I0
sg13
g1025
sg1018
F0
sg14
g1129
sg16
S'MNL'
p1133
sg1023
I0
sg19
S'Range=160.0\nArc (Degrees)=360\nPower Req=2500.0\nLock Time=5.0\nComponents Req=10'
p1134
sg1024
S''
sg1019
F0
sg15
S'Medium Nuclear Launcher'
p1135
sg1021
I50
sg1022
I10
sg17
F200
sg1017
F160
sg1020
I0
sbsS'45'
p1136
g5
(g1007
g7
NtRp1137
(dp1138
g11
F0
sg12
F100
sg1010
S''
sg1011
I360
sg1012
F6
sg1013
I0
sg1014
F3000
sg18
S'59'
p1139
sg10
F48
sg1016
I0
sg13
g1025
sg1018
F0
sg14
g1136
sg16
S'HNL'
p1140
sg1023
I0
sg19
S'Range=192.0\nArc (Degrees)=360\nPower Req=3000.0\nLock Time=6.0\nComponents Req=12'
p1141
sg1024
S''
sg1019
F0
sg15
S'Heavy Nuclear Launcher'
p1142
sg1021
I50
sg1022
I12
sg17
F240
sg1017
F192
sg1020
I0
sbsS'28'
p1143
g5
(g1007
g7
NtRp1144
(dp1145
g11
F32
sg12
F0
sg1010
S'impact'
p1146
sg1011
I10
sg1012
F3
sg1013
I0
sg1014
F600
sg18
S'160'
p1147
sg10
F8
sg1016
I0
sg13
g1025
sg1018
F600
sg14
g1143
sg16
S'HAC'
p1148
sg1023
I0
sg19
S'Range=36.0\nArc (Degrees)=10\nDamage=600.0\nPower Req=600.0\nLock Time=3.0\nComponents Req=8\nDirect Type=impact\nRequires Ammo=yes'
p1149
sg1024
S''
sg1019
F0
sg15
S'Heavy Auto Cannon'
p1150
sg1021
I100
sg1022
I8
sg17
F320
sg1017
F36
sg1020
I1
sbsS'29'
p1151
g5
(g1007
g7
NtRp1152
(dp1153
g11
F12
sg12
F0
sg1010
S'impact'
p1154
sg1011
I360
sg1012
F0.29999999999999999
sg1013
I0
sg1014
F150
sg18
S'168'
p1155
sg10
F4
sg1016
I0
sg13
g1025
sg1018
F150
sg14
g1151
sg16
S'AAC'
p1156
sg1023
I1
sg19
S'Range=8.0\nArc (Degrees)=360\nDamage=150.0\nPower Req=150.0\nLock Time=0.3\nComponents Req=4\nDirect Type=impact\nAnti-Missle=yes\nRequires Ammo=yes'
p1157
sg1024
S''
sg1019
F0
sg15
S'AMS Auto Cannon'
p1158
sg1021
I100
sg1022
I4
sg17
F120
sg1017
F8
sg1020
I1
sbsS'40'
p1159
g5
(g1007
g7
NtRp1160
(dp1161
g11
F24
sg12
F0
sg1010
S''
sg1011
I10
sg1012
F2
sg1013
I10
sg1014
F510
sg18
S'233'
p1162
sg10
F6
sg1016
I200
sg13
g1025
sg1018
F400
sg14
g1159
sg16
S'LPM'
p1163
sg1023
I0
sg19
S'Range=32.0\nArc (Degrees)=10\nDamage=400.0\nPower Req=510.0\nLock Time=2.0\nComponents Req=4\nMissile Type=impact\nSpeed=10\nTracking (sec)=8.0\nRequires Ammo=yes'
p1164
sg1024
S'impact'
p1165
sg1019
F8
sg15
S'Light Plasma Missile'
p1166
sg1021
I200
sg1022
I4
sg17
F240
sg1017
F32
sg1020
I1
sbsS'41'
p1167
g5
(g1007
g7
NtRp1168
(dp1169
g11
F36
sg12
F0
sg1010
S''
sg1011
I10
sg1012
F2.5
sg1013
I10
sg1014
F740
sg18
S'247'
p1170
sg10
F6
sg1016
I200
sg13
g1025
sg1018
F600
sg14
g1167
sg16
S'MPM'
p1171
sg1023
I0
sg19
S'Range=64.0\nArc (Degrees)=10\nDamage=600.0\nPower Req=740.0\nLock Time=2.5\nComponents Req=6\nMissile Type=impact\nSpeed=10\nTracking (sec)=8.0\nRequires Ammo=yes'
p1172
sg1024
S'impact'
p1173
sg1019
F8
sg15
S'Medium Plasma Missile'
p1174
sg1021
I200
sg1022
I6
sg17
F360
sg1017
F64
sg1020
I1
sbsS'1'
g5
(g1007
g7
NtRp1175
(dp1176
g11
F8
sg12
F0
sg1010
S'energy'
p1177
sg1011
I10
sg1012
F2
sg1013
I0
sg1014
F200
sg18
S'34'
p1178
sg10
F2
sg1016
I0
sg13
g1025
sg1018
F150
sg14
S'1'
sg16
S'LPG'
p1179
sg1023
I0
sg19
S'Range=8.0\nArc (Degrees)=10\nDamage=150.0\nPower Req=200.0\nLock Time=2.0\nComponents Req=4\nDirect Type=energy'
p1180
sg1024
S''
sg1019
F0
sg15
S'Light Phasor Gun'
p1181
sg1021
I50
sg1022
I4
sg17
F80
sg1017
F8
sg1020
I0
sbsS'3'
g5
(g1007
g7
NtRp1182
(dp1183
g11
F16
sg12
F0
sg1010
S'energy'
p1184
sg1011
I10
sg1012
F3
sg1013
I0
sg1014
F400
sg18
S'62'
p1185
sg10
F4
sg1016
I0
sg13
g1025
sg1018
F300
sg14
S'3'
sg16
S'HPG'
p1186
sg1023
I0
sg19
S'Range=24.0\nArc (Degrees)=10\nDamage=300.0\nPower Req=400.0\nLock Time=3.0\nComponents Req=8\nDirect Type=energy'
p1187
sg1024
S''
sg1019
F0
sg15
S'Heavy Phasor Gun'
p1188
sg1021
I50
sg1022
I8
sg17
F160
sg1017
F24
sg1020
I0
sbsS'2'
g5
(g1007
g7
NtRp1189
(dp1190
g11
F12
sg12
F0
sg1010
S'energy'
p1191
sg1011
I10
sg1012
F2.5
sg1013
I0
sg1014
F300
sg18
S'48'
p1192
sg10
F2
sg1016
I0
sg13
g1025
sg1018
F225
sg14
S'2'
sg16
S'MPG'
p1193
sg1023
I0
sg19
S'Range=16.0\nArc (Degrees)=10\nDamage=225.0\nPower Req=300.0\nLock Time=2.5\nComponents Req=6\nDirect Type=energy'
p1194
sg1024
S''
sg1019
F0
sg15
S'Medium Phasor Gun'
p1195
sg1021
I50
sg1022
I6
sg17
F120
sg1017
F16
sg1020
I0
sbsS'5'
g5
(g1007
g7
NtRp1196
(dp1197
g11
F16
sg12
F0
sg1010
S'energy'
p1198
sg1011
I10
sg1012
F2
sg1013
I0
sg1014
F300
sg18
S'134'
p1199
sg10
F4
sg1016
I0
sg13
g1025
sg1018
F300
sg14
S'5'
sg16
S'LFC'
p1200
sg1023
I0
sg19
S'Range=12.0\nArc (Degrees)=10\nDamage=300.0\nPower Req=300.0\nLock Time=2.0\nComponents Req=4\nDirect Type=energy'
p1201
sg1024
S''
sg1019
F0
sg15
S'Light Fusion Cannon'
p1202
sg1021
I100
sg1022
I4
sg17
F160
sg1017
F12
sg1020
I0
sbsS'4'
g5
(g1007
g7
NtRp1203
(dp1204
g11
F8
sg12
F0
sg1010
S'energy'
p1205
sg1011
I360
sg1012
F0.29999999999999999
sg1013
I0
sg1014
F100
sg18
S'69'
p1206
sg10
F2
sg1016
I0
sg13
g1025
sg1018
F75
sg14
S'4'
sg16
S'APG'
p1207
sg1023
I1
sg19
S'Range=8.0\nArc (Degrees)=360\nDamage=75.0\nPower Req=100.0\nLock Time=0.3\nComponents Req=4\nDirect Type=energy\nAnti-Missle=yes'
p1208
sg1024
S''
sg1019
F0
sg15
S'AMS Phasor Gun'
p1209
sg1021
I50
sg1022
I4
sg17
F60
sg1017
F8
sg1020
I0
sbsS'7'
g5
(g1007
g7
NtRp1210
(dp1211
g11
F32
sg12
F0
sg1010
S'energy'
p1212
sg1011
I10
sg1012
F3
sg1013
I0
sg1014
F600
sg18
S'162'
p1213
sg10
F8
sg1016
I0
sg13
g1025
sg1018
F600
sg14
S'7'
sg16
S'HFC'
p1214
sg1023
I0
sg19
S'Range=36.0\nArc (Degrees)=10\nDamage=600.0\nPower Req=600.0\nLock Time=3.0\nComponents Req=8\nDirect Type=energy'
p1215
sg1024
S''
sg1019
F0
sg15
S'Heavy Fusion Cannon'
p1216
sg1021
I100
sg1022
I8
sg17
F320
sg1017
F36
sg1020
I0
sbsS'6'
g5
(g1007
g7
NtRp1217
(dp1218
g11
F24
sg12
F0
sg1010
S'energy'
p1219
sg1011
I10
sg1012
F2.5
sg1013
I0
sg1014
F450
sg18
S'148'
p1220
sg10
F6
sg1016
I0
sg13
g1025
sg1018
F450
sg14
S'6'
sg16
S'MFC'
p1221
sg1023
I0
sg19
S'Range=24.0\nArc (Degrees)=10\nDamage=450.0\nPower Req=450.0\nLock Time=2.5\nComponents Req=6\nDirect Type=energy'
p1222
sg1024
S''
sg1019
F0
sg15
S'Medium Fusion Cannon'
p1223
sg1021
I100
sg1022
I6
sg17
F240
sg1017
F24
sg1020
I0
sbsS'9'
g5
(g1007
g7
NtRp1224
(dp1225
g11
F24
sg12
F0
sg1010
S'energy'
p1226
sg1011
I10
sg1012
F2
sg1013
I0
sg1014
F450
sg18
S'234'
p1227
sg10
F6
sg1016
I0
sg13
g1025
sg1018
F600
sg14
S'9'
sg16
S'LPC'
p1228
sg1023
I0
sg19
S'Range=16.0\nArc (Degrees)=10\nDamage=600.0\nPower Req=450.0\nLock Time=2.0\nComponents Req=4\nDirect Type=energy'
p1229
sg1024
S''
sg1019
F0
sg15
S'Light Plasma Cannon'
p1230
sg1021
I200
sg1022
I4
sg17
F240
sg1017
F16
sg1020
I0
sbsS'8'
g5
(g1007
g7
NtRp1231
(dp1232
g11
F12
sg12
F0
sg1010
S'energy'
p1233
sg1011
I360
sg1012
F0.29999999999999999
sg1013
I0
sg1014
F150
sg18
S'169'
p1234
sg10
F4
sg1016
I0
sg13
g1025
sg1018
F150
sg14
S'8'
sg16
S'AFC'
p1235
sg1023
I1
sg19
S'Range=8.0\nArc (Degrees)=360\nDamage=150.0\nPower Req=150.0\nLock Time=0.3\nComponents Req=4\nDirect Type=energy\nAnti-Missle=yes'
p1236
sg1024
S''
sg1019
F0
sg15
S'AMS Fusion Cannon'
p1237
sg1021
I100
sg1022
I4
sg17
F120
sg1017
F8
sg1020
I0
sbsS'51'
p1238
g5
(g1007
g7
NtRp1239
(dp1240
g11
F0
sg12
F100
sg1010
S''
sg1011
I360
sg1012
F8
sg1013
I0
sg1014
F4000
sg18
S'259'
p1241
sg10
F64
sg1016
I0
sg13
g1025
sg1018
F0
sg14
g1238
sg16
S'HPL'
p1242
sg1023
I0
sg19
S'Range=256.0\nArc (Degrees)=360\nPower Req=4000.0\nLock Time=8.0\nComponents Req=12'
p1243
sg1024
S''
sg1019
F0
sg15
S'Heavy Plasma Launcher'
p1244
sg1021
I200
sg1022
I12
sg17
F320
sg1017
F256
sg1020
I0
sbsS'39'
p1245
g5
(g1007
g7
NtRp1246
(dp1247
g11
F32
sg12
F0
sg1010
S''
sg1011
I10
sg1012
F3
sg1013
I10
sg1014
F700
sg18
S'161'
p1248
sg10
F8
sg1016
I100
sg13
g1025
sg1018
F400
sg14
g1245
sg16
S'HFM'
p1249
sg1023
I0
sg19
S'Range=72.0\nArc (Degrees)=10\nDamage=400.0\nPower Req=700.0\nLock Time=3.0\nComponents Req=8\nMissile Type=impact\nSpeed=10\nTracking (sec)=6.0\nRequires Ammo=yes'
p1250
sg1024
S'impact'
p1251
sg1019
F6
sg15
S'Heavy Fusion Missile'
p1252
sg1021
I100
sg1022
I8
sg17
F320
sg1017
F72
sg1020
I1
sbsS'38'
p1253
g5
(g1007
g7
NtRp1254
(dp1255
g11
F24
sg12
F0
sg1010
S''
sg1011
I10
sg1012
F2.5
sg1013
I10
sg1014
F510
sg18
S'147'
p1256
sg10
F6
sg1016
I100
sg13
g1025
sg1018
F300
sg14
g1253
sg16
S'MFM'
p1257
sg1023
I0
sg19
S'Range=48.0\nArc (Degrees)=10\nDamage=300.0\nPower Req=510.0\nLock Time=2.5\nComponents Req=6\nMissile Type=impact\nSpeed=10\nTracking (sec)=6.0\nRequires Ammo=yes'
p1258
sg1024
S'impact'
p1259
sg1019
F6
sg15
S'Medium Fusion Missile'
p1260
sg1021
I100
sg1022
I6
sg17
F240
sg1017
F48
sg1020
I1
sbsS'11'
p1261
g5
(g1007
g7
NtRp1262
(dp1263
g11
F48
sg12
F0
sg1010
S'energy'
p1264
sg1011
I10
sg1012
F3
sg1013
I0
sg1014
F900
sg18
S'262'
p1265
sg10
F12
sg1016
I0
sg13
g1025
sg1018
F1200
sg14
g1261
sg16
S'HPC'
p1266
sg1023
I0
sg19
S'Range=48.0\nArc (Degrees)=10\nDamage=1200.0\nPower Req=900.0\nLock Time=3.0\nComponents Req=8\nDirect Type=energy'
p1267
sg1024
S''
sg1019
F0
sg15
S'Heavy Plasma Cannon'
p1268
sg1021
I200
sg1022
I8
sg17
F480
sg1017
F48
sg1020
I0
sbsS'10'
p1269
g5
(g1007
g7
NtRp1270
(dp1271
g11
F36
sg12
F0
sg1010
S'energy'
p1272
sg1011
I10
sg1012
F2.5
sg1013
I0
sg1014
F675
sg18
S'248'
p1273
sg10
F6
sg1016
I0
sg13
g1025
sg1018
F900
sg14
g1269
sg16
S'MPC'
p1274
sg1023
I0
sg19
S'Range=32.0\nArc (Degrees)=10\nDamage=900.0\nPower Req=675.0\nLock Time=2.5\nComponents Req=6\nDirect Type=energy'
p1275
sg1024
S''
sg1019
F0
sg15
S'Medium Plasma Cannon'
p1276
sg1021
I200
sg1022
I6
sg17
F360
sg1017
F32
sg1020
I0
sbsS'13'
p1277
g5
(g1007
g7
NtRp1278
(dp1279
g11
F8
sg12
F0
sg1010
S''
sg1011
I10
sg1012
F2
sg1013
I10
sg1014
F115
sg18
S'35'
p1280
sg10
F2
sg1016
I50
sg13
g1025
sg1018
F100
sg14
g1277
sg16
S'LNT'
p1281
sg1023
I0
sg19
S'Range=16.0\nArc (Degrees)=10\nDamage=100.0\nPower Req=115.0\nLock Time=2.0\nComponents Req=4\nMissile Type=energy\nSpeed=10\nTracking (sec)=4.0\nRequires Ammo=yes'
p1282
sg1024
S'energy'
p1283
sg1019
F4
sg15
S'Light Nuclear Torpedo'
p1284
sg1021
I50
sg1022
I4
sg17
F80
sg1017
F16
sg1020
I1
sbsS'12'
p1285
g5
(g1007
g7
NtRp1286
(dp1287
g11
F24
sg12
F0
sg1010
S'energy'
p1288
sg1011
I360
sg1012
F0.29999999999999999
sg1013
I0
sg1014
F225
sg18
S'271'
p1289
sg10
F6
sg1016
I0
sg13
g1025
sg1018
F300
sg14
g1285
sg16
S'APC'
p1290
sg1023
I1
sg19
S'Range=10.0\nArc (Degrees)=360\nDamage=300.0\nPower Req=225.0\nLock Time=0.3\nComponents Req=4\nDirect Type=energy\nAnti-Missle=yes'
p1291
sg1024
S''
sg1019
F0
sg15
S'AMS Plasma Cannon'
p1292
sg1021
I200
sg1022
I4
sg17
F180
sg1017
F10
sg1020
I0
sbsS'15'
p1293
g5
(g1007
g7
NtRp1294
(dp1295
g11
F16
sg12
F0
sg1010
S''
sg1011
I10
sg1012
F3
sg1013
I10
sg1014
F235
sg18
S'63'
p1296
sg10
F4
sg1016
I50
sg13
g1025
sg1018
F200
sg14
g1293
sg16
S'HNT'
p1297
sg1023
I0
sg19
S'Range=48.0\nArc (Degrees)=10\nDamage=200.0\nPower Req=235.0\nLock Time=3.0\nComponents Req=8\nMissile Type=energy\nSpeed=10\nTracking (sec)=4.0\nRequires Ammo=yes'
p1298
sg1024
S'energy'
p1299
sg1019
F4
sg15
S'Heavy Nuclear Torpedo'
p1300
sg1021
I50
sg1022
I8
sg17
F160
sg1017
F48
sg1020
I1
sbsS'14'
p1301
g5
(g1007
g7
NtRp1302
(dp1303
g11
F12
sg12
F0
sg1010
S''
sg1011
I10
sg1012
F2.5
sg1013
I10
sg1014
F175
sg18
S'49'
p1304
sg10
F2
sg1016
I50
sg13
g1025
sg1018
F150
sg14
g1301
sg16
S'MNT'
p1305
sg1023
I0
sg19
S'Range=32.0\nArc (Degrees)=10\nDamage=150.0\nPower Req=175.0\nLock Time=2.5\nComponents Req=6\nMissile Type=energy\nSpeed=10\nTracking (sec)=4.0\nRequires Ammo=yes'
p1306
sg1024
S'energy'
p1307
sg1019
F4
sg15
S'Medium Nuclear Torpedo'
p1308
sg1021
I50
sg1022
I6
sg17
F120
sg1017
F32
sg1020
I1
sbsS'17'
p1309
g5
(g1007
g7
NtRp1310
(dp1311
g11
F24
sg12
F0
sg1010
S''
sg1011
I10
sg1012
F2.5
sg1013
I10
sg1014
F255
sg18
S'149'
p1312
sg10
F6
sg1016
I100
sg13
g1025
sg1018
F300
sg14
g1309
sg16
S'MFT'
p1313
sg1023
I0
sg19
S'Range=48.0\nArc (Degrees)=10\nDamage=300.0\nPower Req=255.0\nLock Time=2.5\nComponents Req=6\nMissile Type=energy\nSpeed=10\nTracking (sec)=6.0\nRequires Ammo=yes'
p1314
sg1024
S'energy'
p1315
sg1019
F6
sg15
S'Medium Fusion Torpedo'
p1316
sg1021
I100
sg1022
I6
sg17
F240
sg1017
F48
sg1020
I1
sbsS'16'
p1317
g5
(g1007
g7
NtRp1318
(dp1319
g11
F16
sg12
F0
sg1010
S''
sg1011
I10
sg1012
F2
sg1013
I10
sg1014
F175
sg18
S'135'
p1320
sg10
F4
sg1016
I100
sg13
g1025
sg1018
F200
sg14
g1317
sg16
S'LFT'
p1321
sg1023
I0
sg19
S'Range=24.0\nArc (Degrees)=10\nDamage=200.0\nPower Req=175.0\nLock Time=2.0\nComponents Req=4\nMissile Type=energy\nSpeed=10\nTracking (sec)=6.0\nRequires Ammo=yes'
p1322
sg1024
S'energy'
p1323
sg1019
F6
sg15
S'Light Fusion Torpedo'
p1324
sg1021
I100
sg1022
I4
sg17
F160
sg1017
F24
sg1020
I1
sbsS'19'
p1325
g5
(g1007
g7
NtRp1326
(dp1327
g11
F24
sg12
F0
sg1010
S''
sg1011
I10
sg1012
F2
sg1013
I10
sg1014
F255
sg18
S'235'
p1328
sg10
F6
sg1016
I200
sg13
g1025
sg1018
F400
sg14
g1325
sg16
S'LPT'
p1329
sg1023
I0
sg19
S'Range=32.0\nArc (Degrees)=10\nDamage=400.0\nPower Req=255.0\nLock Time=2.0\nComponents Req=4\nMissile Type=energy\nSpeed=10\nTracking (sec)=8.0\nRequires Ammo=yes'
p1330
sg1024
S'energy'
p1331
sg1019
F8
sg15
S'Light Plasma Torpedo'
p1332
sg1021
I200
sg1022
I4
sg17
F240
sg1017
F32
sg1020
I1
sbsS'18'
p1333
g5
(g1007
g7
NtRp1334
(dp1335
g11
F32
sg12
F0
sg1010
S''
sg1011
I10
sg1012
F3
sg1013
I10
sg1014
F350
sg18
S'163'
p1336
sg10
F8
sg1016
I100
sg13
g1025
sg1018
F400
sg14
g1333
sg16
S'HFT'
p1337
sg1023
I0
sg19
S'Range=72.0\nArc (Degrees)=10\nDamage=400.0\nPower Req=350.0\nLock Time=3.0\nComponents Req=8\nMissile Type=energy\nSpeed=10\nTracking (sec)=6.0\nRequires Ammo=yes'
p1338
sg1024
S'energy'
p1339
sg1019
F6
sg15
S'Heavy Fusion Torpedo'
p1340
sg1021
I100
sg1022
I8
sg17
F320
sg1017
F72
sg1020
I1
sbsS'31'
p1341
g5
(g1007
g7
NtRp1342
(dp1343
g11
F36
sg12
F0
sg1010
S'impact'
p1344
sg1011
I10
sg1012
F2.5
sg1013
I0
sg1014
F675
sg18
S'246'
p1345
sg10
F6
sg1016
I0
sg13
g1025
sg1018
F900
sg14
g1341
sg16
S'MRG'
p1346
sg1023
I0
sg19
S'Range=32.0\nArc (Degrees)=10\nDamage=900.0\nPower Req=675.0\nLock Time=2.5\nComponents Req=6\nDirect Type=impact\nRequires Ammo=yes'
p1347
sg1024
S''
sg1019
F0
sg15
S'Medium Rail Gun'
p1348
sg1021
I200
sg1022
I6
sg17
F360
sg1017
F32
sg1020
I1
sbsS'30'
p1349
g5
(g1007
g7
NtRp1350
(dp1351
g11
F24
sg12
F0
sg1010
S'impact'
p1352
sg1011
I10
sg1012
F2
sg1013
I0
sg1014
F450
sg18
S'232'
p1353
sg10
F6
sg1016
I0
sg13
g1025
sg1018
F600
sg14
g1349
sg16
S'LRG'
p1354
sg1023
I0
sg19
S'Range=16.0\nArc (Degrees)=10\nDamage=600.0\nPower Req=450.0\nLock Time=2.0\nComponents Req=4\nDirect Type=impact\nRequires Ammo=yes'
p1355
sg1024
S''
sg1019
F0
sg15
S'Light Rail Gun'
p1356
sg1021
I200
sg1022
I4
sg17
F240
sg1017
F16
sg1020
I1
sbsS'37'
p1357
g5
(g1007
g7
NtRp1358
(dp1359
g11
F16
sg12
F0
sg1010
S''
sg1011
I10
sg1012
F2
sg1013
I10
sg1014
F350
sg18
S'133'
p1360
sg10
F4
sg1016
I100
sg13
g1025
sg1018
F200
sg14
g1357
sg16
S'LFM'
p1361
sg1023
I0
sg19
S'Range=24.0\nArc (Degrees)=10\nDamage=200.0\nPower Req=350.0\nLock Time=2.0\nComponents Req=4\nMissile Type=impact\nSpeed=10\nTracking (sec)=6.0\nRequires Ammo=yes'
p1362
sg1024
S'impact'
p1363
sg1019
F6
sg15
S'Light Fusion Missile'
p1364
sg1021
I100
sg1022
I4
sg17
F160
sg1017
F24
sg1020
I1
sbsS'36'
p1365
g5
(g1007
g7
NtRp1366
(dp1367
g11
F16
sg12
F0
sg1010
S''
sg1011
I10
sg1012
F3
sg1013
I10
sg1014
F475
sg18
S'61'
p1368
sg10
F4
sg1016
I50
sg13
g1025
sg1018
F200
sg14
g1365
sg16
S'HNM'
p1369
sg1023
I0
sg19
S'Range=48.0\nArc (Degrees)=10\nDamage=200.0\nPower Req=475.0\nLock Time=3.0\nComponents Req=8\nMissile Type=impact\nSpeed=10\nTracking (sec)=4.0\nRequires Ammo=yes'
p1370
sg1024
S'impact'
p1371
sg1019
F4
sg15
S'Heavy Nuclear Missile'
p1372
sg1021
I50
sg1022
I8
sg17
F160
sg1017
F48
sg1020
I1
sbsS'35'
p1373
g5
(g1007
g7
NtRp1374
(dp1375
g11
F12
sg12
F0
sg1010
S''
sg1011
I10
sg1012
F2.5
sg1013
I10
sg1014
F350
sg18
S'47'
p1376
sg10
F2
sg1016
I50
sg13
g1025
sg1018
F150
sg14
g1373
sg16
S'MNM'
p1377
sg1023
I0
sg19
S'Range=32.0\nArc (Degrees)=10\nDamage=150.0\nPower Req=350.0\nLock Time=2.5\nComponents Req=6\nMissile Type=impact\nSpeed=10\nTracking (sec)=4.0\nRequires Ammo=yes'
p1378
sg1024
S'impact'
p1379
sg1019
F4
sg15
S'Medium Nuclear Missile'
p1380
sg1021
I50
sg1022
I6
sg17
F120
sg1017
F32
sg1020
I1
sbsS'34'
p1381
g5
(g1007
g7
NtRp1382
(dp1383
g11
F8
sg12
F0
sg1010
S''
sg1011
I10
sg1012
F2
sg1013
I10
sg1014
F230
sg18
S'33'
p1384
sg10
F2
sg1016
I50
sg13
g1025
sg1018
F100
sg14
g1381
sg16
S'LNM'
p1385
sg1023
I0
sg19
S'Range=16.0\nArc (Degrees)=10\nDamage=100.0\nPower Req=230.0\nLock Time=2.0\nComponents Req=4\nMissile Type=impact\nSpeed=10\nTracking (sec)=4.0\nRequires Ammo=yes'
p1386
sg1024
S'impact'
p1387
sg1019
F4
sg15
S'Light Nuclear Missile'
p1388
sg1021
I50
sg1022
I4
sg17
F80
sg1017
F16
sg1020
I1
sbsS'33'
p1389
g5
(g1007
g7
NtRp1390
(dp1391
g11
F24
sg12
F0
sg1010
S'impact'
p1392
sg1011
I360
sg1012
F0.29999999999999999
sg1013
I0
sg1014
F225
sg18
S'270'
p1393
sg10
F6
sg1016
I0
sg13
g1025
sg1018
F300
sg14
g1389
sg16
S'ARG'
p1394
sg1023
I1
sg19
S'Range=10.0\nArc (Degrees)=360\nDamage=300.0\nPower Req=225.0\nLock Time=0.3\nComponents Req=4\nDirect Type=impact\nAnti-Missle=yes\nRequires Ammo=yes'
p1395
sg1024
S''
sg1019
F0
sg15
S'AMS Rail Gun'
p1396
sg1021
I200
sg1022
I4
sg17
F180
sg1017
F10
sg1020
I1
sbsS'32'
p1397
g5
(g1007
g7
NtRp1398
(dp1399
g11
F48
sg12
F0
sg1010
S'impact'
p1400
sg1011
I10
sg1012
F3
sg1013
I0
sg1014
F900
sg18
S'260'
p1401
sg10
F12
sg1016
I0
sg13
g1025
sg1018
F1200
sg14
g1397
sg16
S'HRG'
p1402
sg1023
I0
sg19
S'Range=48.0\nArc (Degrees)=10\nDamage=1200.0\nPower Req=900.0\nLock Time=3.0\nComponents Req=8\nDirect Type=impact\nRequires Ammo=yes'
p1403
sg1024
S''
sg1019
F0
sg15
S'Heavy Rail Gun'
p1404
sg1021
I200
sg1022
I8
sg17
F480
sg1017
F48
sg1020
I1
sbsS'50'
p1405
g5
(g1007
g7
NtRp1406
(dp1407
g11
F0
sg12
F100
sg1010
S''
sg1011
I360
sg1012
F7
sg1013
I0
sg1014
F3500
sg18
S'245'
p1408
sg10
F56
sg1016
I0
sg13
g1025
sg1018
F0
sg14
g1405
sg16
S'MPL'
p1409
sg1023
I0
sg19
S'Range=224.0\nArc (Degrees)=360\nPower Req=3500.0\nLock Time=7.0\nComponents Req=10'
p1410
sg1024
S''
sg1019
F0
sg15
S'Medium Plasma Launcher'
p1411
sg1021
I200
sg1022
I10
sg17
F280
sg1017
F224
sg1020
I0
sbssS'dronehulldata'
p1412
(dp1413
S'108'
p1414
g5
(canw.war.shiphulldata
DroneHullData
p1415
g7
NtRp1416
(dp1417
S'function'
p1418
S'drone'
p1419
sS'hardPoints'
p1420
(dp1421
S'fore-4'
p1422
(lp1423
I270
aI5
asS'fore-3'
p1424
(lp1425
I180
aI5
asS'fore-2'
p1426
(lp1427
I90
aI5
asS'fore-1'
p1428
(lp1429
I0
aI0
assg10
F35
sg11
F35
sg12
F70
sg13
(g14
g15
g16
g17
g12
g11
g10
g18
g19
g1418
S'size'
p1430
S'componentNum'
p1431
S'maxISP'
p1432
g524
tp1433
sg19
S'test'
p1434
sg1430
S'tiny'
p1435
sg17
F1400
sg16
S'MPD'
p1436
sg1431
I14
sg1432
F1000
sg524
F1500
sg18
S'245'
p1437
sg14
g1414
sg15
S'Medium Plasma Drone'
p1438
sbsS'109'
p1439
g5
(g1415
g7
NtRp1440
(dp1441
g1418
S'drone'
p1442
sg1420
(dp1443
g1422
(lp1444
I270
aI5
asg1424
(lp1445
I180
aI5
asg1426
(lp1446
I90
aI5
asg1428
(lp1447
I0
aI0
assg10
F40
sg11
F40
sg12
F80
sg13
g1433
sg19
S'test'
p1448
sg1430
S'tiny'
p1449
sg17
F1600
sg16
S'HPD'
p1450
sg1431
I16
sg1432
F1200
sg524
F2000
sg18
S'259'
p1451
sg14
g1439
sg15
S'Heavy Plasma Drone'
p1452
sbsS'102'
p1453
g5
(g1415
g7
NtRp1454
(dp1455
g1418
S'drone'
p1456
sg1420
(dp1457
g1422
(lp1458
I270
aI5
asg1424
(lp1459
I180
aI5
asg1426
(lp1460
I90
aI5
asg1428
(lp1461
I0
aI0
assg10
F25
sg11
F25
sg12
F50
sg13
g1433
sg19
S'test'
p1462
sg1430
S'tiny'
p1463
sg17
F1000
sg16
S'MND'
p1464
sg1431
I10
sg1432
F600
sg524
F1500
sg18
S'45'
p1465
sg14
g1453
sg15
S'Medium Nuclear Drone'
p1466
sbsS'103'
p1467
g5
(g1415
g7
NtRp1468
(dp1469
g1418
S'drone'
p1470
sg1420
(dp1471
g1422
(lp1472
I270
aI5
asg1424
(lp1473
I180
aI5
asg1426
(lp1474
I90
aI5
asg1428
(lp1475
I0
aI0
assg10
F30
sg11
F30
sg12
F60
sg13
g1433
sg19
S'test'
p1476
sg1430
S'tiny'
p1477
sg17
F1200
sg16
S'HND'
p1478
sg1431
I12
sg1432
F700
sg524
F2000
sg18
S'59'
p1479
sg14
g1467
sg15
S'Heavy Nuclear Drone'
p1480
sbsS'101'
p1481
g5
(g1415
g7
NtRp1482
(dp1483
g1418
S'drone'
p1484
sg1420
(dp1485
g1422
(lp1486
I270
aI5
asg1424
(lp1487
I180
aI5
asg1426
(lp1488
I90
aI5
asg1428
(lp1489
I0
aI0
assg10
F20
sg11
F20
sg12
F40
sg13
g1433
sg19
S'test'
p1490
sg1430
S'tiny'
p1491
sg17
F800
sg16
S'LND'
p1492
sg1431
I8
sg1432
F500
sg524
F1000
sg18
S'31'
p1493
sg14
g1481
sg15
S'Light Nuclear Drone'
p1494
sbsS'106'
p1495
g5
(g1415
g7
NtRp1496
(dp1497
g1418
S'drone'
p1498
sg1420
(dp1499
g1422
(lp1500
I270
aI5
asg1424
(lp1501
I180
aI5
asg1426
(lp1502
I90
aI5
asg1428
(lp1503
I0
aI0
assg10
F35
sg11
F35
sg12
F70
sg13
g1433
sg19
S'test'
p1504
sg1430
S'tiny'
p1505
sg17
F1400
sg16
S'HFD'
p1506
sg1431
I14
sg1432
F900
sg524
F2000
sg18
S'159'
p1507
sg14
g1495
sg15
S'Heavy Fusion Drone'
p1508
sbsS'107'
p1509
g5
(g1415
g7
NtRp1510
(dp1511
g1418
S'drone'
p1512
sg1420
(dp1513
g1422
(lp1514
I270
aI5
asg1424
(lp1515
I180
aI5
asg1426
(lp1516
I90
aI5
asg1428
(lp1517
I0
aI0
assg10
F30
sg11
F30
sg12
F60
sg13
g1433
sg19
S'test'
p1518
sg1430
S'tiny'
p1519
sg17
F1200
sg16
S'LPD'
p1520
sg1431
I12
sg1432
F900
sg524
F1000
sg18
S'231'
p1521
sg14
g1509
sg15
S'Light Plasma Drone'
p1522
sbsS'104'
p1523
g5
(g1415
g7
NtRp1524
(dp1525
g1418
S'drone'
p1526
sg1420
(dp1527
g1422
(lp1528
I270
aI5
asg1424
(lp1529
I180
aI5
asg1426
(lp1530
I90
aI5
asg1428
(lp1531
I0
aI0
assg10
F25
sg11
F25
sg12
F50
sg13
g1433
sg19
S'test'
p1532
sg1430
S'tiny'
p1533
sg17
F1000
sg16
S'LFD'
p1534
sg1431
I10
sg1432
F700
sg524
F1000
sg18
S'131'
p1535
sg14
g1523
sg15
S'Light Fusion Drone'
p1536
sbsS'105'
p1537
g5
(g1415
g7
NtRp1538
(dp1539
g1418
S'drone'
p1540
sg1420
(dp1541
g1422
(lp1542
I270
aI5
asg1424
(lp1543
I180
aI5
asg1426
(lp1544
I90
aI5
asg1428
(lp1545
I0
aI0
assg10
F30
sg11
F30
sg12
F60
sg13
g1433
sg19
S'test'
p1546
sg1430
S'tiny'
p1547
sg17
F1200
sg16
S'MFD'
p1548
sg1431
I12
sg1432
F800
sg524
F1500
sg18
S'145'
p1549
sg14
g1537
sg15
S'Medium Fusion Drone'
p1550
sbssS'shiphulldata'
p1551
(dp1552
S'11'
p1553
g5
(canw.war.shiphulldata
ShipHullData
p1554
g7
NtRp1555
(dp1556
g1418
S'warship'
p1557
sg1420
(dp1558
S'aft-1'
p1559
(lp1560
I180
aI16
asS'aft-3'
p1561
(lp1562
I180
aI16
asS'aft-2'
p1563
(lp1564
I180
aI16
asS'aft-5'
p1565
(lp1566
I180
aI16
asS'aft-4'
p1567
(lp1568
I180
aI16
asS'aft-6'
p1569
(lp1570
I180
aI16
asS'fore-6'
p1571
(lp1572
I0
aI16
asS'fore-5'
p1573
(lp1574
I0
aI16
asS'fore-4'
p1575
(lp1576
I0
aI16
asS'fore-3'
p1577
(lp1578
I0
aI16
asS'fore-2'
p1579
(lp1580
I0
aI16
asS'fore-1'
p1581
(lp1582
I0
aI16
asS'star-1'
p1583
(lp1584
I90
aI16
asS'star-3'
p1585
(lp1586
I90
aI16
asS'star-2'
p1587
(lp1588
I90
aI16
asS'star-5'
p1589
(lp1590
I90
aI16
asS'star-4'
p1591
(lp1592
I90
aI16
asS'star-6'
p1593
(lp1594
I90
aI16
asS'port-4'
p1595
(lp1596
I270
aI16
asS'port-5'
p1597
(lp1598
I270
aI16
asS'port-6'
p1599
(lp1600
I270
aI16
asS'port-1'
p1601
(lp1602
I270
aI16
asS'port-2'
p1603
(lp1604
I270
aI16
asS'port-3'
p1605
(lp1606
I270
aI16
assg10
F1080
sg11
F2160
sg12
F4320
sg13
g1433
sg19
S'test'
p1607
sg1430
S'large'
p1608
sg17
F43200
sg16
S'DRN'
p1609
sg1431
I24
sg1432
F15000
sg524
F26000
sg18
S'268'
p1610
sg14
g1553
sg15
S'Dread naught'
p1611
sbsS'10'
p1612
g5
(g1554
g7
NtRp1613
(dp1614
g1418
S'warship'
p1615
sg1420
(dp1616
g1559
(lp1617
I180
aI16
asg1595
(lp1618
I270
aI16
asg1561
(lp1619
I180
aI16
asg1563
(lp1620
I180
aI16
asg1565
(lp1621
I180
aI16
asg1601
(lp1622
I270
aI16
asg1603
(lp1623
I270
aI16
asg1605
(lp1624
I270
aI16
asg1573
(lp1625
I0
aI16
asg1575
(lp1626
I0
aI16
asg1577
(lp1627
I0
aI16
asg1579
(lp1628
I0
aI16
asg1581
(lp1629
I0
aI16
asg1583
(lp1630
I90
aI16
asg1585
(lp1631
I90
aI16
asg1587
(lp1632
I90
aI16
asg1589
(lp1633
I90
aI16
asg1591
(lp1634
I90
aI16
asg1597
(lp1635
I270
aI16
asg1567
(lp1636
I180
aI16
assg10
F660
sg11
F1320
sg12
F2640
sg13
g1433
sg19
S'test'
p1637
sg1430
S'large'
p1638
sg17
F26400
sg16
S'BCU'
p1639
sg1431
I22
sg1432
F12000
sg524
F24000
sg18
S'257'
p1640
sg14
g1612
sg15
S'Battle Cruiser'
p1641
sbsS'13'
p1642
g5
(g1554
g7
NtRp1643
(dp1644
g1418
S'carrier'
p1645
sg1420
(dp1646
g1601
(lp1647
I320
aI25
asg1603
(lp1648
I260
aI20
asg1605
(lp1649
I210
aI25
asg1559
(lp1650
I170
aI15
asg1561
(lp1651
I180
aI15
asg1563
(lp1652
I190
aI15
asg1577
(lp1653
I0
aI15
asg1579
(lp1654
I350
aI15
asg1581
(lp1655
I10
aI15
asg1583
(lp1656
I40
aI25
asg1585
(lp1657
I150
aI25
asg1587
(lp1658
I260
aI20
assg10
F180
sg11
F360
sg12
F720
sg13
g1433
sg19
S'test'
p1659
sg1430
S'large'
p1660
sg17
F7200
sg16
S'ECA'
p1661
sg1431
I12
sg1432
F2000
sg524
F14000
sg18
S'58'
p1662
sg14
g1642
sg15
S'Escort Carrier'
p1663
sbsS'12'
p1664
g5
(g1554
g7
NtRp1665
(dp1666
g1418
S'warship'
p1667
sg1420
(dp1668
g1559
(lp1669
I180
aI16
asg1561
(lp1670
I180
aI16
asg1563
(lp1671
I180
aI16
asg1565
(lp1672
I180
aI16
asg1567
(lp1673
I180
aI16
asS'aft-7'
p1674
(lp1675
I180
aI16
asg1569
(lp1676
I180
aI16
asS'fore-7'
p1677
(lp1678
I0
aI16
asg1571
(lp1679
I0
aI16
asg1573
(lp1680
I0
aI16
asg1575
(lp1681
I0
aI16
asg1577
(lp1682
I0
aI16
asg1579
(lp1683
I0
aI16
asg1581
(lp1684
I0
aI16
asg1583
(lp1685
I90
aI16
asg1585
(lp1686
I90
aI16
asg1587
(lp1687
I90
aI16
asg1589
(lp1688
I90
aI16
asg1591
(lp1689
I90
aI16
asS'star-7'
p1690
(lp1691
I90
aI16
asg1593
(lp1692
I90
aI16
asg1595
(lp1693
I270
aI16
asg1597
(lp1694
I270
aI16
asg1599
(lp1695
I270
aI16
asS'port-7'
p1696
(lp1697
I270
aI16
asg1601
(lp1698
I270
aI16
asg1603
(lp1699
I270
aI16
asg1605
(lp1700
I270
aI16
assg10
F1260
sg11
F2520
sg12
F5040
sg13
g1433
sg19
S'test'
p1701
sg1430
S'large'
p1702
sg17
F50400
sg16
S'SDN'
p1703
sg1431
I28
sg1432
F20000
sg524
F30000
sg18
S'269'
p1704
sg14
g1664
sg15
S'Super Dread naught'
p1705
sbsS'15'
p1706
g5
(g1554
g7
NtRp1707
(dp1708
g1418
S'carrier'
p1709
sg1420
(dp1710
g1559
(lp1711
I180
aI16
asg1595
(lp1712
I270
aI16
asg1561
(lp1713
I180
aI16
asg1563
(lp1714
I180
aI16
asg1565
(lp1715
I180
aI16
asg1601
(lp1716
I270
aI16
asg1603
(lp1717
I270
aI16
asg1605
(lp1718
I270
aI16
asg1573
(lp1719
I0
aI16
asg1575
(lp1720
I0
aI16
asg1577
(lp1721
I0
aI16
asg1579
(lp1722
I0
aI16
asg1581
(lp1723
I0
aI16
asg1583
(lp1724
I90
aI16
asg1585
(lp1725
I90
aI16
asg1587
(lp1726
I90
aI16
asg1589
(lp1727
I90
aI16
asg1591
(lp1728
I90
aI16
asg1597
(lp1729
I270
aI16
asg1567
(lp1730
I180
aI16
assg10
F900
sg11
F1800
sg12
F3600
sg13
g1433
sg19
S'test'
p1731
sg1430
S'large'
p1732
sg17
F36000
sg16
S'BCA'
p1733
sg1431
I20
sg1432
F8000
sg524
F22000
sg18
S'258'
p1734
sg14
g1706
sg15
S'Battle Carrier'
p1735
sbsS'14'
p1736
g5
(g1554
g7
NtRp1737
(dp1738
g1418
S'carrier'
p1739
sg1420
(dp1740
g1559
(lp1741
I180
aI16
asg1595
(lp1742
I270
aI16
asg1561
(lp1743
I180
aI16
asg1563
(lp1744
I180
aI16
asg1601
(lp1745
I270
aI16
asg1603
(lp1746
I270
aI16
asg1605
(lp1747
I270
aI16
asg1575
(lp1748
I0
aI16
asg1577
(lp1749
I0
aI16
asg1579
(lp1750
I0
aI16
asg1581
(lp1751
I0
aI16
asg1583
(lp1752
I90
aI16
asg1585
(lp1753
I90
aI16
asg1587
(lp1754
I90
aI16
asg1591
(lp1755
I90
aI16
asg1567
(lp1756
I180
aI16
assg10
F480
sg11
F960
sg12
F1920
sg13
g1433
sg19
S'test'
p1757
sg1430
S'large'
p1758
sg17
F19200
sg16
S'HCA'
p1759
sg1431
I16
sg1432
F4000
sg524
F18000
sg18
S'158'
p1760
sg14
g1736
sg15
S'Heavy Carrier'
p1761
sbsS'17'
p1762
g5
(g1554
g7
NtRp1763
(dp1764
g1418
S'assault'
p1765
sg1420
(dp1766
g1559
(lp1767
I180
aI16
asg1595
(lp1768
I270
aI16
asg1561
(lp1769
I180
aI16
asg1563
(lp1770
I180
aI16
asg1601
(lp1771
I270
aI16
asg1603
(lp1772
I270
aI16
asg1605
(lp1773
I270
aI16
asg1575
(lp1774
I0
aI16
asg1577
(lp1775
I0
aI16
asg1579
(lp1776
I0
aI16
asg1581
(lp1777
I0
aI16
asg1583
(lp1778
I90
aI16
asg1585
(lp1779
I90
aI16
asg1587
(lp1780
I90
aI16
asg1591
(lp1781
I90
aI16
asg1567
(lp1782
I180
aI16
assg10
F480
sg11
F960
sg12
F1920
sg13
g1433
sg19
S'test'
p1783
sg1430
S'small'
p1784
sg17
F19200
sg16
S'HAS'
p1785
sg1431
I16
sg1432
F4000
sg524
F14000
sg18
S'121'
p1786
sg14
g1762
sg15
S'Heavy Assault Ship'
p1787
sbsS'16'
p1788
g5
(g1554
g7
NtRp1789
(dp1790
g1418
S'assault'
p1791
sg1420
(dp1792
g1601
(lp1793
I320
aI25
asg1603
(lp1794
I260
aI20
asg1605
(lp1795
I210
aI25
asg1559
(lp1796
I170
aI15
asg1561
(lp1797
I180
aI15
asg1563
(lp1798
I190
aI15
asg1577
(lp1799
I0
aI15
asg1579
(lp1800
I350
aI15
asg1581
(lp1801
I10
aI15
asg1583
(lp1802
I40
aI25
asg1585
(lp1803
I150
aI25
asg1587
(lp1804
I260
aI20
assg10
F180
sg11
F360
sg12
F720
sg13
g1433
sg19
S'test'
p1805
sg1430
S'small'
p1806
sg17
F7200
sg16
S'LAS'
p1807
sg1431
I12
sg1432
F2000
sg524
F12000
sg18
S'21'
p1808
sg14
g1788
sg15
S'Light Assault Ship'
p1809
sbsS'19'
p1810
g5
(g1554
g7
NtRp1811
(dp1812
g1418
S'platform'
p1813
sg1420
(dp1814
g1559
(lp1815
I180
aI16
asg1595
(lp1816
I270
aI16
asg1561
(lp1817
I180
aI16
asg1563
(lp1818
I180
aI16
asg1565
(lp1819
I180
aI16
asg1601
(lp1820
I270
aI16
asg1603
(lp1821
I270
aI16
asg1605
(lp1822
I270
aI16
asg1573
(lp1823
I0
aI16
asg1575
(lp1824
I0
aI16
asg1577
(lp1825
I0
aI16
asg1579
(lp1826
I0
aI16
asg1581
(lp1827
I0
aI16
asg1583
(lp1828
I90
aI16
asg1585
(lp1829
I90
aI16
asg1587
(lp1830
I90
aI16
asg1589
(lp1831
I90
aI16
asg1591
(lp1832
I90
aI16
asg1597
(lp1833
I270
aI16
asg1567
(lp1834
I180
aI16
assg10
F150
sg11
F300
sg12
F600
sg13
g1433
sg19
S'test'
p1835
sg1430
S'large'
p1836
sg17
F6000
sg16
S'LWP'
p1837
sg1431
I20
sg1432
F10000
sg524
F12000
sg18
S'20'
p1838
sg14
g1810
sg15
S'Light Weapons Platform'
p1839
sbsS'18'
p1840
g5
(g1554
g7
NtRp1841
(dp1842
g1418
S'assault'
p1843
sg1420
(dp1844
g1559
(lp1845
I180
aI16
asg1595
(lp1846
I270
aI16
asg1561
(lp1847
I180
aI16
asg1563
(lp1848
I180
aI16
asg1565
(lp1849
I180
aI16
asg1601
(lp1850
I270
aI16
asg1603
(lp1851
I270
aI16
asg1605
(lp1852
I270
aI16
asg1573
(lp1853
I0
aI16
asg1575
(lp1854
I0
aI16
asg1577
(lp1855
I0
aI16
asg1579
(lp1856
I0
aI16
asg1581
(lp1857
I0
aI16
asg1583
(lp1858
I90
aI16
asg1585
(lp1859
I90
aI16
asg1587
(lp1860
I90
aI16
asg1589
(lp1861
I90
aI16
asg1591
(lp1862
I90
aI16
asg1597
(lp1863
I270
aI16
asg1567
(lp1864
I180
aI16
assg10
F900
sg11
F1800
sg12
F3600
sg13
g1433
sg19
S'test'
p1865
sg1430
S'small'
p1866
sg17
F36000
sg16
S'BAS'
p1867
sg1431
I20
sg1432
F8000
sg524
F16000
sg18
S'221'
p1868
sg14
g1840
sg15
S'Battle Assault Ship'
p1869
sbsS'20'
p1870
g5
(g1554
g7
NtRp1871
(dp1872
g1418
S'platform'
p1873
sg1420
(dp1874
g1559
(lp1875
I180
aI16
asg1561
(lp1876
I180
aI16
asg1563
(lp1877
I180
aI16
asg1565
(lp1878
I180
aI16
asg1567
(lp1879
I180
aI16
asg1674
(lp1880
I180
aI16
asg1569
(lp1881
I180
aI16
asg1677
(lp1882
I0
aI16
asg1571
(lp1883
I0
aI16
asg1573
(lp1884
I0
aI16
asg1575
(lp1885
I0
aI16
asg1577
(lp1886
I0
aI16
asg1579
(lp1887
I0
aI16
asg1581
(lp1888
I0
aI16
asg1583
(lp1889
I90
aI16
asg1585
(lp1890
I90
aI16
asg1587
(lp1891
I90
aI16
asg1589
(lp1892
I90
aI16
asg1591
(lp1893
I90
aI16
asg1690
(lp1894
I90
aI16
asg1593
(lp1895
I90
aI16
asg1595
(lp1896
I270
aI16
asg1597
(lp1897
I270
aI16
asg1599
(lp1898
I270
aI16
asg1696
(lp1899
I270
aI16
asg1601
(lp1900
I270
aI16
asg1603
(lp1901
I270
aI16
asg1605
(lp1902
I270
aI16
assg10
F420
sg11
F840
sg12
F1680
sg13
g1433
sg19
S'test'
p1903
sg1430
S'large'
p1904
sg17
F16800
sg16
S'HWP'
p1905
sg1431
I28
sg1432
F15000
sg524
F14000
sg18
S'120'
p1906
sg14
g1870
sg15
S'Heavy Weapons Platform'
p1907
sbsS'1'
g5
(g1554
g7
NtRp1908
(dp1909
g1418
S'warship'
p1910
sg1420
(dp1911
g1559
(lp1912
I180
aI7
asg1583
(lp1913
I135
aI7
asg1601
(lp1914
I225
aI7
asg1581
(lp1915
I0
aI8
assg10
F60
sg11
F120
sg12
F240
sg13
g1433
sg19
S'test'
p1916
sg1430
S'small'
p1917
sg17
F2400
sg16
S'SCT'
p1918
sg1431
I4
sg1432
F400
sg524
F4000
sg18
S'19'
p1919
sg14
S'1'
sg15
S'Scout'
p1920
sbsS'3'
g5
(g1554
g7
NtRp1921
(dp1922
g1418
S'warship'
p1923
sg1420
(dp1924
g1559
(lp1925
I150
aI4
asg1583
(lp1926
I240
aI16
asg1587
(lp1927
I240
aI12
asg1563
(lp1928
I210
aI4
asg1601
(lp1929
I120
aI16
asg1603
(lp1930
I120
aI12
asg1579
(lp1931
I330
aI4
asg1581
(lp1932
I30
aI4
assg10
F120
sg11
F240
sg12
F480
sg13
g1433
sg19
S'test'
p1933
sg1430
S'small'
p1934
sg17
F4800
sg16
S'COR'
p1935
sg1431
I8
sg1432
F800
sg524
F8000
sg18
S'44'
p1936
sg14
S'3'
sg15
S'Corvette'
p1937
sbsS'2'
g5
(g1554
g7
NtRp1938
(dp1939
g1418
S'warship'
p1940
sg1420
(dp1941
g1559
(lp1942
I180
aI8
asg1583
(lp1943
I90
aI8
asg1601
(lp1944
I270
aI8
asg1581
(lp1945
I0
aI8
assg10
F90
sg11
F180
sg12
F360
sg13
g1433
sg19
S'test'
p1946
sg1430
S'small'
p1947
sg17
F3600
sg16
S'INT'
p1948
sg1431
I6
sg1432
F600
sg524
F6000
sg18
S'30'
p1949
sg14
S'2'
sg15
S'Interceptor'
p1950
sbsS'5'
g5
(g1554
g7
NtRp1951
(dp1952
g1418
S'warship'
p1953
sg1420
(dp1954
g1601
(lp1955
I340
aI12
asg1603
(lp1956
I330
aI4
asg1605
(lp1957
I225
aI26
asg1559
(lp1958
I225
aI8
asg1561
(lp1959
I180
aI8
asg1563
(lp1960
I135
aI8
asg1577
(lp1961
I350
aI30
asg1579
(lp1962
I10
aI30
asg1581
(lp1963
I0
aI30
asg1583
(lp1964
I20
aI12
asg1585
(lp1965
I135
aI26
asg1587
(lp1966
I30
aI4
assg10
F180
sg11
F360
sg12
F720
sg13
g1433
sg19
S'test'
p1967
sg1430
S'large'
p1968
sg17
F7200
sg16
S'FRG'
p1969
sg1431
I12
sg1432
F2000
sg524
F12000
sg18
S'130'
p1970
sg14
S'5'
sg15
S'Frigate'
p1971
sbsS'4'
g5
(g1554
g7
NtRp1972
(dp1973
g1418
S'warship'
p1974
sg1420
(dp1975
g1559
(lp1976
I150
aI4
asg1583
(lp1977
I240
aI16
asg1587
(lp1978
I240
aI12
asg1563
(lp1979
I210
aI4
asg1601
(lp1980
I120
aI16
asg1603
(lp1981
I120
aI12
asg1579
(lp1982
I330
aI4
asg1581
(lp1983
I30
aI4
assg10
F150
sg11
F300
sg12
F600
sg13
g1433
sg19
S'test'
p1984
sg1430
S'small'
p1985
sg17
F6000
sg16
S'HCO'
p1986
sg1431
I10
sg1432
F1000
sg524
F10000
sg18
S'57'
p1987
sg14
S'4'
sg15
S'Heavy Corvette'
p1988
sbsS'7'
g5
(g1554
g7
NtRp1989
(dp1990
g1418
S'warship'
p1991
sg1420
(dp1992
g1559
(lp1993
I180
aI20
asg1595
(lp1994
I225
aI30
asg1561
(lp1995
I220
aI20
asg1563
(lp1996
I200
aI20
asg1601
(lp1997
I337
aI20
asg1603
(lp1998
I330
aI14
asg1605
(lp1999
I315
aI4
asg1575
(lp2000
I347
aI46
asg1577
(lp2001
I13
aI46
asg1579
(lp2002
I355
aI46
asg1581
(lp2003
I5
aI46
asg1583
(lp2004
I23
aI20
asg1585
(lp2005
I45
aI4
asg1587
(lp2006
I30
aI14
asg1591
(lp2007
I135
aI30
asg1567
(lp2008
I180
aI30
assg10
F240
sg11
F480
sg12
F960
sg13
g1433
sg19
S'test'
p2009
sg1430
S'large'
p2010
sg17
F9600
sg16
S'DST'
p2011
sg1431
I16
sg1432
F4000
sg524
F16000
sg18
S'157'
p2012
sg14
S'7'
sg15
S'Destroyer'
p2013
sbsS'6'
g5
(g1554
g7
NtRp2014
(dp2015
g1418
S'warship'
p2016
sg1420
(dp2017
g1601
(lp2018
I335
aI18
asg1603
(lp2019
I330
aI10
asg1605
(lp2020
I225
aI30
asg1559
(lp2021
I225
aI8
asg1561
(lp2022
I180
aI8
asg1563
(lp2023
I135
aI8
asg1577
(lp2024
I350
aI35
asg1579
(lp2025
I10
aI35
asg1581
(lp2026
I0
aI35
asg1583
(lp2027
I25
aI18
asg1585
(lp2028
I135
aI30
asg1587
(lp2029
I30
aI10
assg10
F210
sg11
F420
sg12
F840
sg13
g1433
sg19
S'test'
p2030
sg1430
S'large'
p2031
sg17
F8400
sg16
S'BFR'
p2032
sg1431
I14
sg1432
F3000
sg524
F14000
sg18
S'144'
p2033
sg14
S'6'
sg15
S'Battle Frigate'
p2034
sbsS'9'
g5
(g1554
g7
NtRp2035
(dp2036
g1418
S'warship'
p2037
sg1420
(dp2038
g1559
(lp2039
I180
aI40
asg1595
(lp2040
I255
aI18
asg1561
(lp2041
I220
aI30
asg1563
(lp2042
I200
aI30
asg1565
(lp2043
I220
aI40
asg1601
(lp2044
I260
aI40
asg1603
(lp2045
I250
aI42
asg1605
(lp2046
I235
aI44
asg1573
(lp2047
I0
aI50
asg1575
(lp2048
I346
aI45
asg1577
(lp2049
I16
aI45
asg1579
(lp2050
I353
aI50
asg1581
(lp2051
I7
aI50
asg1583
(lp2052
I100
aI40
asg1585
(lp2053
I125
aI44
asg1587
(lp2054
I110
aI42
asg1589
(lp2055
I90
aI16
asg1591
(lp2056
I105
aI18
asg1597
(lp2057
I270
aI16
asg1567
(lp2058
I200
aI40
assg10
F600
sg11
F1200
sg12
F2400
sg13
g1433
sg19
S'test'
p2059
sg1430
S'large'
p2060
sg17
F24000
sg16
S'HCU'
p2061
sg1431
I20
sg1432
F10000
sg524
F22000
sg18
S'244'
p2062
sg14
S'9'
sg15
S'Heavy Cruiser'
p2063
sbsS'8'
g5
(g1554
g7
NtRp2064
(dp2065
g1418
S'warship'
p2066
sg1420
(dp2067
g1559
(lp2068
I180
aI40
asg1595
(lp2069
I260
aI18
asg1561
(lp2070
I220
aI30
asg1563
(lp2071
I200
aI30
asg1601
(lp2072
I260
aI40
asg1603
(lp2073
I250
aI42
asg1605
(lp2074
I235
aI44
asg1575
(lp2075
I347
aI45
asg1577
(lp2076
I13
aI45
asg1579
(lp2077
I355
aI50
asg1581
(lp2078
I5
aI50
asg1583
(lp2079
I100
aI40
asg1585
(lp2080
I125
aI44
asg1587
(lp2081
I110
aI42
asg1591
(lp2082
I100
aI18
asg1567
(lp2083
I180
aI10
assg10
F540
sg11
F1080
sg12
F2160
sg13
g1433
sg19
S'test'
p2084
sg1430
S'large'
p2085
sg17
F21600
sg16
S'CRU'
p2086
sg1431
I18
sg1432
F8000
sg524
F20000
sg18
S'230'
p2087
sg14
S'8'
sg15
S'Cruiser'
p2088
sbsS'21'
p2089
g5
(g1554
g7
NtRp2090
(dp2091
g1418
S'platform'
p2092
sg1420
(dp2093
g1595
(lp2094
I270
aI16
asg1597
(lp2095
I270
aI16
asg1599
(lp2096
I270
aI16
asg1696
(lp2097
I270
aI16
asg1601
(lp2098
I270
aI16
asg1603
(lp2099
I270
aI16
asg1605
(lp2100
I270
aI16
asS'port-8'
p2101
(lp2102
I270
aI16
asS'port-9'
p2103
(lp2104
I270
aI16
asS'star-8'
p2105
(lp2106
I90
aI16
asS'fore-8'
p2107
(lp2108
I0
aI16
asg1559
(lp2109
I180
aI16
asg1561
(lp2110
I180
aI16
asg1563
(lp2111
I180
aI16
asg1565
(lp2112
I180
aI16
asg1567
(lp2113
I180
aI16
asg1674
(lp2114
I180
aI16
asg1569
(lp2115
I180
aI16
asg1677
(lp2116
I0
aI16
asg1571
(lp2117
I0
aI16
asg1573
(lp2118
I0
aI16
asg1575
(lp2119
I0
aI16
asg1577
(lp2120
I0
aI16
asg1579
(lp2121
I0
aI16
asg1581
(lp2122
I0
aI16
asg1583
(lp2123
I90
aI16
asS'aft-9'
p2124
(lp2125
I180
aI16
asg1585
(lp2126
I90
aI16
asg1587
(lp2127
I90
aI16
asg1589
(lp2128
I90
aI16
asg1591
(lp2129
I90
aI16
asg1690
(lp2130
I90
aI16
asg1593
(lp2131
I90
aI16
asS'star-9'
p2132
(lp2133
I90
aI16
asS'aft-8'
p2134
(lp2135
I180
aI16
asS'fore-9'
p2136
(lp2137
I0
aI16
assg10
F810
sg11
F1620
sg12
F3240
sg13
g1433
sg19
S'test'
p2138
sg1430
S'large'
p2139
sg17
F32400
sg16
S'BWP'
p2140
sg1431
I36
sg1432
F20000
sg524
F16000
sg18
S'220'
p2141
sg14
g2089
sg15
S'Battle Weapons Platform'
p2142
sbss.